/* This testcase is part of GDB, the GNU debugger.

   Copyright 2011-2024 Free Software Foundation, Inc.

   This program is free software; you can redistribute it and/or modify
   it under the terms of the GNU General Public License as published by
   the Free Software Foundation; either version 3 of the License, or
   (at your option) any later version.

   This program is distributed in the hope that it will be useful,
   but WITHOUT ANY WARRANTY; without even the implied warranty of
   MERCHANTABILITY or FITNESS FOR A PARTICULAR PURPOSE.  See the
   GNU General Public License for more details.

   You should have received a copy of the GNU General Public License
   along with this program.  If not, see <http://www.gnu.org/licenses/>.  */

/* This file is compiled from gdb.arch/amd64-entry-value.c
   using -g -dA -S -O2.  */

	.file	"amd64-entry-value.cc"
	.text
.Ltext0:
	.p2align 4,,15
	.type	_ZL1eid, @function
_ZL1eid:
.LFB0:
	.file 1 "gdb.arch/amd64-entry-value.cc"
	# gdb.arch/amd64-entry-value.cc:22
	.loc 1 22 0
	.cfi_startproc
.LVL0:
# BLOCK 2 freq:10000 seq:0
# PRED: ENTRY [100.0%]  (fallthru)
	# gdb.arch/amd64-entry-value.cc:23
	.loc 1 23 0
	movl	$0, _ZL1v(%rip)
# SUCC: EXIT [100.0%] 
	# gdb.arch/amd64-entry-value.cc:24
	.loc 1 24 0
	ret
	.cfi_endproc
.LFE0:
	.size	_ZL1eid, .-_ZL1eid
	.p2align 4,,15
	.type	_ZL1did, @function
_ZL1did:
.LFB1:
	# gdb.arch/amd64-entry-value.cc:28
	.loc 1 28 0
	.cfi_startproc
.LVL1:
# BLOCK 2 freq:10000 seq:0
# PRED: ENTRY [100.0%]  (fallthru)
	# gdb.arch/amd64-entry-value.cc:30
	.loc 1 30 0
	addsd	.LC0(%rip), %xmm0
.LVL2:
	# gdb.arch/amd64-entry-value.cc:29
	.loc 1 29 0
	addl	$1, %edi
.LVL3:
	# gdb.arch/amd64-entry-value.cc:31
	.loc 1 31 0
	call	_ZL1eid
.LVL4:
	# gdb.arch/amd64-entry-value.cc:32
	.loc 1 32 0
	movl	_ZL1v(%rip), %eax
	movl	_ZL1v(%rip), %edi
	cvtsi2sd	%eax, %xmm0
	call	_ZL1eid
.LVL5:
	# gdb.arch/amd64-entry-value.cc:33
	.loc 1 33 0
#APP
# 33 "gdb.arch/amd64-entry-value.cc" 1
	breakhere:
# 0 "" 2
	# gdb.arch/amd64-entry-value.cc:34
	.loc 1 34 0
#NO_APP
	movl	_ZL1v(%rip), %eax
	movl	_ZL1v(%rip), %edi
	cvtsi2sd	%eax, %xmm0
	jmp	_ZL1eid
# SUCC: EXIT [100.0%]  (ab,sibcall)
.LVL6:
	.cfi_endproc
.LFE1:
	.size	_ZL1did, .-_ZL1did
	.p2align 4,,15
	.type	_ZL7locexpri, @function
_ZL7locexpri:
.LFB2:
	# gdb.arch/amd64-entry-value.cc:39
	.loc 1 39 0
	.cfi_startproc
.LVL7:
# BLOCK 2 freq:10000 seq:0
# PRED: ENTRY [100.0%]  (fallthru)
	# gdb.arch/amd64-entry-value.cc:41
	.loc 1 41 0
#APP
# 41 "gdb.arch/amd64-entry-value.cc" 1
	breakhere_locexpr:
# 0 "" 2
# SUCC: EXIT [100.0%] 
	# gdb.arch/amd64-entry-value.cc:42
	.loc 1 42 0
#NO_APP
	ret
	.cfi_endproc
.LFE2:
	.size	_ZL7locexpri, .-_ZL7locexpri
	.p2align 4,,15
	.type	_ZL1cid, @function
_ZL1cid:
.LFB3:
	# gdb.arch/amd64-entry-value.cc:46
	.loc 1 46 0
	.cfi_startproc
.LVL8:
# BLOCK 2 freq:10000 seq:0
# PRED: ENTRY [100.0%]  (fallthru)
	# gdb.arch/amd64-entry-value.cc:47
	.loc 1 47 0
	mulsd	.LC1(%rip), %xmm0
.LVL9:
	leal	(%rdi,%rdi,4), %edi
.LVL10:
	addl	%edi, %edi
	jmp	_ZL1did
# SUCC: EXIT [100.0%]  (ab,sibcall)
.LVL11:
	.cfi_endproc
.LFE3:
	.size	_ZL1cid, .-_ZL1cid
	.p2align 4,,15
	.type	_ZL1aid, @function
_ZL1aid:
.LFB4:
	# gdb.arch/amd64-entry-value.cc:52
	.loc 1 52 0
	.cfi_startproc
.LVL12:
# BLOCK 2 freq:10000 seq:0
# PRED: ENTRY [100.0%]  (fallthru)
	# gdb.arch/amd64-entry-value.cc:53
	.loc 1 53 0
	addsd	.LC0(%rip), %xmm0
.LVL13:
	addl	$1, %edi
.LVL14:
	jmp	_ZL1cid
.LVL15:
# SUCC: EXIT [100.0%]  (ab,sibcall)
	.cfi_endproc
.LFE4:
	.size	_ZL1aid, .-_ZL1aid
	.p2align 4,,15
	.type	_ZL1bid, @function
_ZL1bid:
.LFB5:
	# gdb.arch/amd64-entry-value.cc:58
	.loc 1 58 0
	.cfi_startproc
.LVL16:
# BLOCK 2 freq:10000 seq:0
# PRED: ENTRY [100.0%]  (fallthru)
	# gdb.arch/amd64-entry-value.cc:59
	.loc 1 59 0
	addsd	.LC2(%rip), %xmm0
.LVL17:
	addl	$2, %edi
.LVL18:
	jmp	_ZL1cid
.LVL19:
# SUCC: EXIT [100.0%]  (ab,sibcall)
	.cfi_endproc
.LFE5:
	.size	_ZL1bid, .-_ZL1bid
	.p2align 4,,15
	.type	_ZL5amb_zi, @function
_ZL5amb_zi:
.LFB6:
	# gdb.arch/amd64-entry-value.cc:64
	.loc 1 64 0
	.cfi_startproc
.LVL20:
# BLOCK 2 freq:10000 seq:0
# PRED: ENTRY [100.0%]  (fallthru)
	# gdb.arch/amd64-entry-value.cc:65
	.loc 1 65 0
	cvtsi2sd	%edi, %xmm0
	addl	$7, %edi
.LVL21:
	addsd	.LC3(%rip), %xmm0
	jmp	_ZL1did
.LVL22:
# SUCC: EXIT [100.0%]  (ab,sibcall)
	.cfi_endproc
.LFE6:
	.size	_ZL5amb_zi, .-_ZL5amb_zi
	.p2align 4,,15
	.type	_ZL5amb_yi, @function
_ZL5amb_yi:
.LFB7:
	# gdb.arch/amd64-entry-value.cc:70
	.loc 1 70 0
	.cfi_startproc
.LVL23:
# BLOCK 2 freq:10000 seq:0
# PRED: ENTRY [100.0%]  (fallthru)
	# gdb.arch/amd64-entry-value.cc:71
	.loc 1 71 0
	addl	$6, %edi
.LVL24:
	jmp	_ZL5amb_zi
.LVL25:
# SUCC: EXIT [100.0%]  (ab,sibcall)
	.cfi_endproc
.LFE7:
	.size	_ZL5amb_yi, .-_ZL5amb_yi
	.p2align 4,,15
	.type	_ZL5amb_xi, @function
_ZL5amb_xi:
.LFB8:
	# gdb.arch/amd64-entry-value.cc:76
	.loc 1 76 0
	.cfi_startproc
.LVL26:
# BLOCK 2 freq:10000 seq:0
# PRED: ENTRY [100.0%]  (fallthru)
	# gdb.arch/amd64-entry-value.cc:77
	.loc 1 77 0
	addl	$5, %edi
.LVL27:
	jmp	_ZL5amb_yi
.LVL28:
# SUCC: EXIT [100.0%]  (ab,sibcall)
	.cfi_endproc
.LFE8:
	.size	_ZL5amb_xi, .-_ZL5amb_xi
	.p2align 4,,15
	.type	_ZL3ambi, @function
_ZL3ambi:
.LFB9:
	# gdb.arch/amd64-entry-value.cc:82
	.loc 1 82 0
	.cfi_startproc
.LVL29:
# BLOCK 2 freq:10000 seq:0
# PRED: ENTRY [100.0%]  (fallthru)
	# gdb.arch/amd64-entry-value.cc:83
	.loc 1 83 0
	testl	%edi, %edi
# SUCC: 4 [19.1%]  (can_fallthru) 3 [80.9%]  (fallthru,can_fallthru)
	js	.L13
# BLOCK 3 freq:8088 seq:1
# PRED: 2 [80.9%]  (fallthru,can_fallthru)
	# gdb.arch/amd64-entry-value.cc:86
	.loc 1 86 0
	addl	$4, %edi
.LVL30:
	jmp	_ZL5amb_xi
.LVL31:
# SUCC: EXIT [100.0%]  (ab,sibcall)
# BLOCK 4 freq:1912 seq:2
# PRED: 2 [19.1%]  (can_fallthru)
.L13:
	# gdb.arch/amd64-entry-value.cc:84
	.loc 1 84 0
	addl	$3, %edi
.LVL32:
	jmp	_ZL5amb_xi
.LVL33:
# SUCC: EXIT [100.0%]  (ab,sibcall)
	.cfi_endproc
.LFE9:
	.size	_ZL3ambi, .-_ZL3ambi
	.p2align 4,,15
	.type	_ZL5amb_bi, @function
_ZL5amb_bi:
.LFB10:
	# gdb.arch/amd64-entry-value.cc:91
	.loc 1 91 0
	.cfi_startproc
.LVL34:
# BLOCK 2 freq:10000 seq:0
# PRED: ENTRY [100.0%]  (fallthru)
	# gdb.arch/amd64-entry-value.cc:92
	.loc 1 92 0
	addl	$2, %edi
.LVL35:
	jmp	_ZL3ambi
.LVL36:
# SUCC: EXIT [100.0%]  (ab,sibcall)
	.cfi_endproc
.LFE10:
	.size	_ZL5amb_bi, .-_ZL5amb_bi
	.p2align 4,,15
	.type	_ZL5amb_ai, @function
_ZL5amb_ai:
.LFB11:
	# gdb.arch/amd64-entry-value.cc:97
	.loc 1 97 0
	.cfi_startproc
.LVL37:
# BLOCK 2 freq:10000 seq:0
# PRED: ENTRY [100.0%]  (fallthru)
	# gdb.arch/amd64-entry-value.cc:98
	.loc 1 98 0
	addl	$1, %edi
.LVL38:
	jmp	_ZL5amb_bi
.LVL39:
# SUCC: EXIT [100.0%]  (ab,sibcall)
	.cfi_endproc
.LFE11:
	.size	_ZL5amb_ai, .-_ZL5amb_ai
	.p2align 4,,15
	.type	_ZL4selfi, @function
_ZL4selfi:
.LFB13:
	# gdb.arch/amd64-entry-value.cc:111
	.loc 1 111 0
	.cfi_startproc
.LVL40:
# BLOCK 2 freq:10000 seq:0
# PRED: ENTRY [100.0%]  (fallthru)
	# gdb.arch/amd64-entry-value.cc:112
	.loc 1 112 0
	cmpl	$200, %edi
	# gdb.arch/amd64-entry-value.cc:111
	.loc 1 111 0
	pushq	%rbx
.LCFI0:
	.cfi_def_cfa_offset 16
	.cfi_offset 3, -16
	# gdb.arch/amd64-entry-value.cc:111
	.loc 1 111 0
	movl	%edi, %ebx
# SUCC: 4 [19.9%]  (can_fallthru) 3 [80.1%]  (fallthru,can_fallthru)
	# gdb.arch/amd64-entry-value.cc:112
	.loc 1 112 0
	je	.L18
# BLOCK 3 freq:8009 seq:1
# PRED: 2 [80.1%]  (fallthru,can_fallthru)
	# gdb.arch/amd64-entry-value.cc:119
	.loc 1 119 0
	movl	_ZL1v(%rip), %eax
	movl	_ZL1v(%rip), %edi
.LVL41:
	cvtsi2sd	%eax, %xmm0
	call	_ZL1eid
.LVL42:
	# gdb.arch/amd64-entry-value.cc:120
	.loc 1 120 0
	cvtsi2sd	%ebx, %xmm0
	leal	2(%rbx), %edi
	# gdb.arch/amd64-entry-value.cc:122
	.loc 1 122 0
	popq	%rbx
.LCFI1:
	.cfi_remember_state
	.cfi_def_cfa_offset 8
.LVL43:
	# gdb.arch/amd64-entry-value.cc:120
	.loc 1 120 0
	addsd	.LC4(%rip), %xmm0
	jmp	_ZL1did
.LVL44:
# SUCC: EXIT [100.0%]  (ab,sibcall)
# BLOCK 4 freq:1991 seq:2
# PRED: 2 [19.9%]  (can_fallthru)
	.p2align 4,,10
	.p2align 3
.L18:
.LCFI2:
	.cfi_restore_state
	# gdb.arch/amd64-entry-value.cc:122
	.loc 1 122 0
	popq	%rbx
.LCFI3:
	.cfi_def_cfa_offset 8
.LVL45:
	# gdb.arch/amd64-entry-value.cc:115
	.loc 1 115 0
	movl	$201, %edi
.LVL46:
	jmp	_ZL5self2i
# SUCC: EXIT [100.0%]  (ab,sibcall)
.LVL47:
	.cfi_endproc
.LFE13:
	.size	_ZL4selfi, .-_ZL4selfi
	.p2align 4,,15
	.type	_ZL5self2i, @function
_ZL5self2i:
.LFB12:
	# gdb.arch/amd64-entry-value.cc:105
	.loc 1 105 0
	.cfi_startproc
.LVL48:
# BLOCK 2 freq:10000 seq:0
# PRED: ENTRY [100.0%]  (fallthru)
	# gdb.arch/amd64-entry-value.cc:106
	.loc 1 106 0
	jmp	_ZL4selfi
.LVL49:
# SUCC: EXIT [100.0%]  (ab,sibcall)
	.cfi_endproc
.LFE12:
	.size	_ZL5self2i, .-_ZL5self2i
	.p2align 4,,15
	.type	_ZL9stacktestiiiiiiiidddddddddd, @function
_ZL9stacktestiiiiiiiidddddddddd:
.LFB14:
	# gdb.arch/amd64-entry-value.cc:128
	.loc 1 128 0
	.cfi_startproc
.LVL50:
# BLOCK 2 freq:10000 seq:0
# PRED: ENTRY [100.0%]  (fallthru)
	# gdb.arch/amd64-entry-value.cc:133
	.loc 1 133 0
	movl	_ZL1v(%rip), %eax
	movl	_ZL1v(%rip), %edi
.LVL51:
	cvtsi2sd	%eax, %xmm0
.LVL52:
	call	_ZL1eid
.LVL53:
	# gdb.arch/amd64-entry-value.cc:134
	.loc 1 134 0
#APP
# 134 "gdb.arch/amd64-entry-value.cc" 1
	breakhere_stacktest:
# 0 "" 2
	# gdb.arch/amd64-entry-value.cc:135
	.loc 1 135 0
#NO_APP
	movl	_ZL1v(%rip), %eax
	movl	_ZL1v(%rip), %edi
	cvtsi2sd	%eax, %xmm0
	jmp	_ZL1eid
# SUCC: EXIT [100.0%]  (ab,sibcall)
.LVL54:
	.cfi_endproc
.LFE14:
	.size	_ZL9stacktestiiiiiiiidddddddddd, .-_ZL9stacktestiiiiiiiidddddddddd
	.p2align 4,,15
	.type	_ZL9referenceRiS_iiiiS_S_, @function
_ZL9referenceRiS_iiiiS_S_:
.LFB15:
	# gdb.arch/amd64-entry-value.cc:145
	.loc 1 145 0
	.cfi_startproc
.LVL55:
# BLOCK 2 freq:10000 seq:0
# PRED: ENTRY [100.0%]  (fallthru)
.LBB2:
	# gdb.arch/amd64-entry-value.cc:151
	.loc 1 151 0
	movq	8(%rsp), %rax
	# gdb.arch/amd64-entry-value.cc:149
	.loc 1 149 0
	movl	$21, (%rdi)
	# gdb.arch/amd64-entry-value.cc:150
	.loc 1 150 0
	movl	$22, (%rsi)
	# gdb.arch/amd64-entry-value.cc:151
	.loc 1 151 0
	movl	$31, (%rax)
	# gdb.arch/amd64-entry-value.cc:152
	.loc 1 152 0
	movq	16(%rsp), %rax
	movl	$32, (%rax)
	# gdb.arch/amd64-entry-value.cc:153
	.loc 1 153 0
	movl	_ZL1v(%rip), %eax
	movl	_ZL1v(%rip), %edi
.LVL56:
	cvtsi2sd	%eax, %xmm0
	call	_ZL1eid
.LVL57:
	# gdb.arch/amd64-entry-value.cc:154
	.loc 1 154 0
#APP
# 154 "gdb.arch/amd64-entry-value.cc" 1
	breakhere_reference:
# 0 "" 2
	# gdb.arch/amd64-entry-value.cc:155
	.loc 1 155 0
#NO_APP
	movl	_ZL1v(%rip), %eax
	movl	_ZL1v(%rip), %edi
	cvtsi2sd	%eax, %xmm0
	jmp	_ZL1eid
# SUCC: EXIT [100.0%]  (ab,sibcall)
.LVL58:
.LBE2:
	.cfi_endproc
.LFE15:
	.size	_ZL9referenceRiS_iiiiS_S_, .-_ZL9referenceRiS_iiiiS_S_
	.p2align 4,,15
	.type	_ZL5datapv, @function
_ZL5datapv:
.LFB16:
	# gdb.arch/amd64-entry-value.cc:160
	.loc 1 160 0
	.cfi_startproc
# BLOCK 2 freq:10000 seq:0
# PRED: ENTRY [100.0%]  (fallthru)
	# gdb.arch/amd64-entry-value.cc:164
	.loc 1 164 0
	movl	$_ZZL5datapvE3two, %eax
# SUCC: EXIT [100.0%] 
	ret
	.cfi_endproc
.LFE16:
	.size	_ZL5datapv, .-_ZL5datapv
	.p2align 4,,15
	.type	_ZL11datap_inputPi, @function
_ZL11datap_inputPi:
.LFB17:
	# gdb.arch/amd64-entry-value.cc:168
	.loc 1 168 0
	.cfi_startproc
.LVL59:
# BLOCK 2 freq:10000 seq:0
# PRED: ENTRY [100.0%]  (fallthru)
	# gdb.arch/amd64-entry-value.cc:169
	.loc 1 169 0
	addl	$1, (%rdi)
# SUCC: EXIT [100.0%] 
	# gdb.arch/amd64-entry-value.cc:170
	.loc 1 170 0
	ret
	.cfi_endproc
.LFE17:
	.size	_ZL11datap_inputPi, .-_ZL11datap_inputPi
	.p2align 4,,15
	.type	_ZL4datav, @function
_ZL4datav:
.LFB18:
	# gdb.arch/amd64-entry-value.cc:174
	.loc 1 174 0
	.cfi_startproc
# BLOCK 2 freq:10000 seq:0
# PRED: ENTRY [100.0%]  (fallthru)
	# gdb.arch/amd64-entry-value.cc:176
	.loc 1 176 0
	movl	$10, %eax
# SUCC: EXIT [100.0%] 
	ret
	.cfi_endproc
.LFE18:
	.size	_ZL4datav, .-_ZL4datav
	.p2align 4,,15
	.type	_ZL5data2v, @function
_ZL5data2v:
.LFB19:
	# gdb.arch/amd64-entry-value.cc:180
	.loc 1 180 0
	.cfi_startproc
# BLOCK 2 freq:10000 seq:0
# PRED: ENTRY [100.0%]  (fallthru)
	# gdb.arch/amd64-entry-value.cc:182
	.loc 1 182 0
	movl	$20, %eax
# SUCC: EXIT [100.0%] 
	ret
	.cfi_endproc
.LFE19:
	.size	_ZL5data2v, .-_ZL5data2v
	.p2align 4,,15
	.type	_ZL9differenti, @function
_ZL9differenti:
.LFB20:
	# gdb.arch/amd64-entry-value.cc:186
	.loc 1 186 0
	.cfi_startproc
.LVL60:
# BLOCK 2 freq:10000 seq:0
# PRED: ENTRY [100.0%]  (fallthru)
	pushq	%rbx
.LCFI4:
	.cfi_def_cfa_offset 16
	.cfi_offset 3, -16
	# gdb.arch/amd64-entry-value.cc:187
	.loc 1 187 0
	leal	1(%rdi), %ebx
.LVL61:
	# gdb.arch/amd64-entry-value.cc:188
	.loc 1 188 0
	cvtsi2sd	%ebx, %xmm0
	movl	%ebx, %edi
	call	_ZL1eid
.LVL62:
	# gdb.arch/amd64-entry-value.cc:189
	.loc 1 189 0
#APP
# 189 "gdb.arch/amd64-entry-value.cc" 1
	breakhere_different:
# 0 "" 2
	# gdb.arch/amd64-entry-value.cc:191
	.loc 1 191 0
#NO_APP
	movl	%ebx, %eax
	popq	%rbx
.LCFI5:
	.cfi_def_cfa_offset 8
.LVL63:
# SUCC: EXIT [100.0%] 
	ret
	.cfi_endproc
.LFE20:
	.size	_ZL9differenti, .-_ZL9differenti
	.p2align 4,,15
	.type	_ZL8validityii, @function
_ZL8validityii:
.LFB21:
	# gdb.arch/amd64-entry-value.cc:195
	.loc 1 195 0
	.cfi_startproc
.LVL64:
# BLOCK 2 freq:10000 seq:0
# PRED: ENTRY [100.0%]  (fallthru)
	# gdb.arch/amd64-entry-value.cc:197
	.loc 1 197 0
	xorpd	%xmm0, %xmm0
	# gdb.arch/amd64-entry-value.cc:195
	.loc 1 195 0
	pushq	%rbx
.LCFI6:
	.cfi_def_cfa_offset 16
	.cfi_offset 3, -16
	# gdb.arch/amd64-entry-value.cc:197
	.loc 1 197 0
	xorl	%edi, %edi
	# gdb.arch/amd64-entry-value.cc:195
	.loc 1 195 0
	movl	%esi, %ebx
	# gdb.arch/amd64-entry-value.cc:197
	.loc 1 197 0
	call	_ZL1eid
.LVL65:
	# gdb.arch/amd64-entry-value.cc:198
	.loc 1 198 0
#APP
# 198 "gdb.arch/amd64-entry-value.cc" 1
	breakhere_validity:
# 0 "" 2
	# gdb.arch/amd64-entry-value.cc:200
	.loc 1 200 0
#NO_APP
	movl	%ebx, %eax
	popq	%rbx
.LCFI7:
	.cfi_def_cfa_offset 8
.LVL66:
# SUCC: EXIT [100.0%] 
	ret
	.cfi_endproc
.LFE21:
	.size	_ZL8validityii, .-_ZL8validityii
	.p2align 4,,15
	.type	_ZL7invalidi, @function
_ZL7invalidi:
.LFB22:
	# gdb.arch/amd64-entry-value.cc:204
	.loc 1 204 0
	.cfi_startproc
.LVL67:
# BLOCK 2 freq:10000 seq:0
# PRED: ENTRY [100.0%]  (fallthru)
	# gdb.arch/amd64-entry-value.cc:205
	.loc 1 205 0
	xorpd	%xmm0, %xmm0
	xorl	%edi, %edi
.LVL68:
	call	_ZL1eid
.LVL69:
	# gdb.arch/amd64-entry-value.cc:206
	.loc 1 206 0
#APP
# 206 "gdb.arch/amd64-entry-value.cc" 1
	breakhere_invalid:
# 0 "" 2
# SUCC: EXIT [100.0%] 
	# gdb.arch/amd64-entry-value.cc:207
	.loc 1 207 0
#NO_APP
	ret
	.cfi_endproc
.LFE22:
	.size	_ZL7invalidi, .-_ZL7invalidi
	.section	.text.startup,"ax",@progbits
	.p2align 4,,15
	.globl	main
	.type	main, @function
main:
.LFB23:
	# gdb.arch/amd64-entry-value.cc:211
	.loc 1 211 0
	.cfi_startproc
# BLOCK 2 freq:10000 seq:0
# PRED: ENTRY [100.0%]  (fallthru)
	pushq	%rbx
.LCFI8:
	.cfi_def_cfa_offset 16
.LBB3:
	# gdb.arch/amd64-entry-value.cc:212
	.loc 1 212 0
	movl	$30, %edi
.LBE3:
	# gdb.arch/amd64-entry-value.cc:211
	.loc 1 211 0
	subq	$48, %rsp
.LCFI9:
	.cfi_def_cfa_offset 64
	.cfi_offset 3, -16
.LBB5:
	# gdb.arch/amd64-entry-value.cc:212
	.loc 1 212 0
	movsd	.LC6(%rip), %xmm0
	call	_ZL1did
.LVL70:
	# gdb.arch/amd64-entry-value.cc:213
	.loc 1 213 0
	movl	$30, %edi
	call	_ZL7locexpri
.LVL71:
	# gdb.arch/amd64-entry-value.cc:215
	.loc 1 215 0
	movsd	.LC7(%rip), %xmm7
	movabsq	$4623226492472524800, %rax
	movsd	.LC3(%rip), %xmm6
	movabsq	$4622663542519103488, %rdx
	movsd	.LC8(%rip), %xmm5
	movl	$6, %r9d
	movsd	.LC9(%rip), %xmm4
	movl	$5, %r8d
	movsd	.LC10(%rip), %xmm3
	movl	$4, %ecx
	movsd	.LC11(%rip), %xmm2
	movl	$2, %esi
	movsd	.LC4(%rip), %xmm1
	movq	%rax, 24(%rsp)
	movsd	.LC12(%rip), %xmm0
	movq	%rdx, 16(%rsp)
	movl	$1, %edi
	movl	$3, %edx
	movl	$12, 8(%rsp)
	movl	$11, (%rsp)
	call	_ZL9stacktestiiiiiiiidddddddddd
.LVL72:
	# gdb.arch/amd64-entry-value.cc:216
	.loc 1 216 0
	movl	$5, %edi
	call	_ZL9differenti
.LVL73:
	# gdb.arch/amd64-entry-value.cc:217
	.loc 1 217 0
	call	_ZL4datav
.LVL74:
	movl	$5, %edi
	movl	%eax, %esi
	call	_ZL8validityii
.LVL75:
	# gdb.arch/amd64-entry-value.cc:218
	.loc 1 218 0
	call	_ZL5data2v
.LVL76:
	movl	%eax, %edi
	call	_ZL7invalidi
.LVL77:
.LBB4:
	# gdb.arch/amd64-entry-value.cc:221
	.loc 1 221 0
	movl	$1, 36(%rsp)
.LVL78:
	call	_ZL5datapv
.LVL79:
	movq	%rax, %rbx
.LVL80:
	# gdb.arch/amd64-entry-value.cc:222
	.loc 1 222 0
	leaq	44(%rsp), %rax
.LVL81:
	leaq	36(%rsp), %rdi
	movl	$6, %r9d
	movl	$5, %r8d
	movl	$4, %ecx
	movq	%rax, 8(%rsp)
	leaq	40(%rsp), %rax
	movl	$3, %edx
	movq	%rbx, %rsi
	# gdb.arch/amd64-entry-value.cc:221
	.loc 1 221 0
	movl	$11, 40(%rsp)
.LVL82:
	movl	$12, 44(%rsp)
.LVL83:
	# gdb.arch/amd64-entry-value.cc:222
	.loc 1 222 0
	movq	%rax, (%rsp)
	call	_ZL9referenceRiS_iiiiS_S_
.LVL84:
	# gdb.arch/amd64-entry-value.cc:223
	.loc 1 223 0
	movq	%rbx, %rdi
	call	_ZL11datap_inputPi
.LVL85:
.LBE4:
	# gdb.arch/amd64-entry-value.cc:226
	.loc 1 226 0
	movl	_ZL1v(%rip), %eax
	testl	%eax, %eax
# SUCC: 5 [39.0%]  (can_fallthru) 3 [61.0%]  (fallthru,can_fallthru)
	jne	.L32
# BLOCK 3 freq:6100 seq:1
# PRED: 2 [61.0%]  (fallthru,can_fallthru)
	# gdb.arch/amd64-entry-value.cc:229
	.loc 1 229 0
	movsd	.LC16(%rip), %xmm0
	movl	$5, %edi
	call	_ZL1bid
# SUCC: 4 [100.0%]  (fallthru,can_fallthru)
.LVL86:
# BLOCK 4 freq:10000 seq:2
# PRED: 3 [100.0%]  (fallthru,can_fallthru) 5 [100.0%] 
.L31:
	# gdb.arch/amd64-entry-value.cc:230
	.loc 1 230 0
	movl	$100, %edi
	call	_ZL5amb_ai
.LVL87:
	# gdb.arch/amd64-entry-value.cc:231
	.loc 1 231 0
	movl	$200, %edi
	call	_ZL4selfi
.LVL88:
.LBE5:
	# gdb.arch/amd64-entry-value.cc:233
	.loc 1 233 0
	addq	$48, %rsp
.LCFI10:
	.cfi_remember_state
	.cfi_def_cfa_offset 16
	xorl	%eax, %eax
	popq	%rbx
.LCFI11:
	.cfi_def_cfa_offset 8
.LVL89:
# SUCC: EXIT [100.0%] 
	ret
.LVL90:
# BLOCK 5 freq:3900 seq:3
# PRED: 2 [39.0%]  (can_fallthru)
.L32:
.LCFI12:
	.cfi_restore_state
.LBB6:
	# gdb.arch/amd64-entry-value.cc:227
	.loc 1 227 0
	movsd	.LC15(%rip), %xmm0
	movl	$1, %edi
	call	_ZL1aid
.LVL91:
# SUCC: 4 [100.0%] 
	jmp	.L31
.LBE6:
	.cfi_endproc
.LFE23:
	.size	main, .-main
	.local	_ZL1v
	.comm	_ZL1v,4,4
	.data
	.align 4
	.type	_ZZL5datapvE3two, @object
	.size	_ZZL5datapvE3two, 4
_ZZL5datapvE3two:
	.long	2
	.section	.rodata.cst8,"aM",@progbits,8
	.align 8
.LC0:
	.long	0
	.long	1072693248
	.align 8
.LC1:
	.long	0
	.long	1076101120
	.align 8
.LC2:
	.long	0
	.long	1073741824
	.align 8
.LC3:
	.long	0
	.long	1075707904
	.align 8
.LC4:
	.long	0
	.long	1074003968
	.align 8
.LC6:
	.long	0
	.long	1077837824
	.align 8
.LC7:
	.long	0
	.long	1075904512
	.align 8
.LC8:
	.long	0
	.long	1075445760
	.align 8
.LC9:
	.long	0
	.long	1075183616
	.align 8
.LC10:
	.long	0
	.long	1074921472
	.align 8
.LC11:
	.long	0
	.long	1074528256
	.align 8
.LC12:
	.long	0
	.long	1073217536
	.align 8
.LC15:
	.long	0
	.long	1072955392
	.align 8
.LC16:
	.long	0
	.long	1075118080
	.text
.Letext0:
	.section	.note.GNU-stack,"",@progbits
