/* This testcase is part of GDB, the GNU debugger.
      	
   Copyright 2011-2024 Free Software Foundation, Inc.

   This program is free software; you can redistribute it and/or modify
   it under the terms of the GNU General Public License as published by
   the Free Software Foundation; either version 3 of the License, or
   (at your option) any later version.

   This program is distributed in the hope that it will be useful,
   but WITHOUT ANY WARRANTY; without even the implied warranty of
   MERCHANTABILITY or FITNESS FOR A PARTICULAR PURPOSE.  See the
   GNU General Public License for more details.

   You should have received a copy of the GNU General Public License
   along with this program.  If not, see <http://www.gnu.org/licenses/>.  */
      	
/* This file is compiled from gdb.arch/amd64-prologue-xmm.c
   using -g -dA -S.  */

	.file	"amd64-prologue-xmm.c"
	.text
.Ltext0:
	.local	v
	.comm	v,4,4
	.local	fail
	.comm	fail,4,4
	.type	func, @function
func:
.LFB0:
	.file 1 "gdb.arch/amd64-prologue-xmm.c"
	# gdb.arch/amd64-prologue-xmm.c:22
	.loc 1 22 0
	.cfi_startproc
	# basic block 2
	pushq	%rbp
	.cfi_def_cfa_offset 16
	.cfi_offset 6, -16
	movq	%rsp, %rbp
	.cfi_def_cfa_register 6
	subq	$72, %rsp
	movq	%rsi, -168(%rbp)
	movq	%rdx, -160(%rbp)
	movq	%rcx, -152(%rbp)
	movq	%r8, -144(%rbp)
	movq	%r9, -136(%rbp)
	testb	%al, %al
	je	.L2
	# basic block 3
	# gdb.arch/amd64-prologue-xmm.c:22
	.loc 1 22 0
	movaps	%xmm0, -128(%rbp)
	movaps	%xmm1, -112(%rbp)
	movaps	%xmm2, -96(%rbp)
	movaps	%xmm3, -80(%rbp)
	movaps	%xmm4, -64(%rbp)
	movaps	%xmm5, -48(%rbp)
	movaps	%xmm6, -32(%rbp)
	movaps	%xmm7, -16(%rbp)
.L2:
	# basic block 4
	movl	%edi, -180(%rbp)
	# gdb.arch/amd64-prologue-xmm.c:23
	.loc 1 23 0
	movl	-180(%rbp), %eax
	movl	%eax, v(%rip)
	# gdb.arch/amd64-prologue-xmm.c:24
	.loc 1 24 0
	leave
	.cfi_def_cfa 7, 8
	ret
	.cfi_endproc
.LFE0:
	.size	func, .-func
	.type	marker, @function
marker:
.LFB1:
	# gdb.arch/amd64-prologue-xmm.c:28
	.loc 1 28 0
	.cfi_startproc
	# basic block 2
	pushq	%rbp
	.cfi_def_cfa_offset 16
	.cfi_offset 6, -16
	movq	%rsp, %rbp
	.cfi_def_cfa_register 6
	# gdb.arch/amd64-prologue-xmm.c:29
	.loc 1 29 0
	popq	%rbp
	.cfi_def_cfa 7, 8
	ret
	.cfi_endproc
.LFE1:
	.size	marker, .-marker
	.globl	main
	.type	main, @function
main:
.LFB2:
	# gdb.arch/amd64-prologue-xmm.c:33
	.loc 1 33 0
	.cfi_startproc
	# basic block 2
	pushq	%rbp
	.cfi_def_cfa_offset 16
	.cfi_offset 6, -16
	movq	%rsp, %rbp
	.cfi_def_cfa_register 6
	# gdb.arch/amd64-prologue-xmm.c:34
	.loc 1 34 0
	movl	$1, %edi
	movl	$0, %eax
	call	func
	# gdb.arch/amd64-prologue-xmm.c:35
	.loc 1 35 0
	movl	$1, fail(%rip)
	# gdb.arch/amd64-prologue-xmm.c:36
	.loc 1 36 0
	call	marker
	# gdb.arch/amd64-prologue-xmm.c:37
	.loc 1 37 0
	movl	$0, %eax
	# gdb.arch/amd64-prologue-xmm.c:38
	.loc 1 38 0
	popq	%rbp
	.cfi_def_cfa 7, 8
	ret
	.cfi_endproc
.LFE2:
	.size	main, .-main
.Letext0:
	.section	.note.GNU-stack,"",@progbits
