/* This testcase is part of GDB, the GNU debugger.

   Copyright 2011-2024 Free Software Foundation, Inc.

   This program is free software; you can redistribute it and/or modify
   it under the terms of the GNU General Public License as published by
   the Free Software Foundation; either version 3 of the License, or
   (at your option) any later version.

   This program is distributed in the hope that it will be useful,
   but WITHOUT ANY WARRANTY; without even the implied warranty of
   MERCHANTABILITY or FITNESS FOR A PARTICULAR PURPOSE.  See the
   GNU General Public License for more details.

   You should have received a copy of the GNU General Public License
   along with this program.  If not, see <http://www.gnu.org/licenses/>.  */

/* This file is compiled from gdb.mi/mi2-amd64-entry-value.c
   using -g -dA -S -O2.  */

	.file	"mi2-amd64-entry-value.c"
	.text
.Ltext0:
	.p2align 4,,15
	.type	e, @function
e:
.LFB0:
	.file 1 "gdb.mi/mi2-amd64-entry-value.c"
	# gdb.mi/mi2-amd64-entry-value.c:22
	.loc 1 22 0
	.cfi_startproc
.LVL0:
# BLOCK 2 freq:10000 seq:0
# PRED: ENTRY [100.0%]  (fallthru)
	# gdb.mi/mi2-amd64-entry-value.c:23
	.loc 1 23 0
	movl	$0, v(%rip)
# SUCC: EXIT [100.0%] 
	# gdb.mi/mi2-amd64-entry-value.c:24
	.loc 1 24 0
	ret
	.cfi_endproc
.LFE0:
	.size	e, .-e
	.p2align 4,,15
	.type	data, @function
data:
.LFB1:
	# gdb.mi/mi2-amd64-entry-value.c:28
	.loc 1 28 0
	.cfi_startproc
# BLOCK 2 freq:10000 seq:0
# PRED: ENTRY [100.0%]  (fallthru)
	# gdb.mi/mi2-amd64-entry-value.c:30
	.loc 1 30 0
	movl	$10, %eax
# SUCC: EXIT [100.0%] 
	ret
	.cfi_endproc
.LFE1:
	.size	data, .-data
	.p2align 4,,15
	.type	data2, @function
data2:
.LFB2:
	# gdb.mi/mi2-amd64-entry-value.c:34
	.loc 1 34 0
	.cfi_startproc
# BLOCK 2 freq:10000 seq:0
# PRED: ENTRY [100.0%]  (fallthru)
	# gdb.mi/mi2-amd64-entry-value.c:36
	.loc 1 36 0
	movl	$20, %eax
# SUCC: EXIT [100.0%] 
	ret
	.cfi_endproc
.LFE2:
	.size	data2, .-data2
	.p2align 4,,15
	.type	different, @function
different:
.LFB3:
	# gdb.mi/mi2-amd64-entry-value.c:40
	.loc 1 40 0
	.cfi_startproc
.LVL1:
# BLOCK 2 freq:10000 seq:0
# PRED: ENTRY [100.0%]  (fallthru)
	pushq	%rbx
.LCFI0:
	.cfi_def_cfa_offset 16
	.cfi_offset 3, -16
	# gdb.mi/mi2-amd64-entry-value.c:41
	.loc 1 41 0
	leal	1(%rdi), %ebx
.LVL2:
	# gdb.mi/mi2-amd64-entry-value.c:42
	.loc 1 42 0
	cvtsi2sd	%ebx, %xmm0
	movl	%ebx, %edi
	call	e
.LVL3:
	# gdb.mi/mi2-amd64-entry-value.c:43
	.loc 1 43 0
#APP
# 43 "gdb.mi/mi2-amd64-entry-value.c" 1
	breakhere_different:
# 0 "" 2
	# gdb.mi/mi2-amd64-entry-value.c:45
	.loc 1 45 0
#NO_APP
	movl	%ebx, %eax
	popq	%rbx
.LCFI1:
	.cfi_def_cfa_offset 8
.LVL4:
# SUCC: EXIT [100.0%] 
	ret
	.cfi_endproc
.LFE3:
	.size	different, .-different
	.p2align 4,,15
	.type	validity, @function
validity:
.LFB4:
	# gdb.mi/mi2-amd64-entry-value.c:49
	.loc 1 49 0
	.cfi_startproc
.LVL5:
# BLOCK 2 freq:10000 seq:0
# PRED: ENTRY [100.0%]  (fallthru)
	# gdb.mi/mi2-amd64-entry-value.c:51
	.loc 1 51 0
	xorpd	%xmm0, %xmm0
	# gdb.mi/mi2-amd64-entry-value.c:49
	.loc 1 49 0
	pushq	%rbx
.LCFI2:
	.cfi_def_cfa_offset 16
	.cfi_offset 3, -16
	# gdb.mi/mi2-amd64-entry-value.c:51
	.loc 1 51 0
	xorl	%edi, %edi
	# gdb.mi/mi2-amd64-entry-value.c:49
	.loc 1 49 0
	movl	%esi, %ebx
	# gdb.mi/mi2-amd64-entry-value.c:51
	.loc 1 51 0
	call	e
.LVL6:
	# gdb.mi/mi2-amd64-entry-value.c:52
	.loc 1 52 0
#APP
# 52 "gdb.mi/mi2-amd64-entry-value.c" 1
	breakhere_validity:
# 0 "" 2
	# gdb.mi/mi2-amd64-entry-value.c:54
	.loc 1 54 0
#NO_APP
	movl	%ebx, %eax
	popq	%rbx
.LCFI3:
	.cfi_def_cfa_offset 8
.LVL7:
# SUCC: EXIT [100.0%] 
	ret
	.cfi_endproc
.LFE4:
	.size	validity, .-validity
	.p2align 4,,15
	.type	invalid, @function
invalid:
.LFB5:
	# gdb.mi/mi2-amd64-entry-value.c:58
	.loc 1 58 0
	.cfi_startproc
.LVL8:
# BLOCK 2 freq:10000 seq:0
# PRED: ENTRY [100.0%]  (fallthru)
	# gdb.mi/mi2-amd64-entry-value.c:59
	.loc 1 59 0
	xorpd	%xmm0, %xmm0
	xorl	%edi, %edi
.LVL9:
	call	e
.LVL10:
	# gdb.mi/mi2-amd64-entry-value.c:60
	.loc 1 60 0
#APP
# 60 "gdb.mi/mi2-amd64-entry-value.c" 1
	breakhere_invalid:
# 0 "" 2
# SUCC: EXIT [100.0%] 
	# gdb.mi/mi2-amd64-entry-value.c:61
	.loc 1 61 0
#NO_APP
	ret
	.cfi_endproc
.LFE5:
	.size	invalid, .-invalid
	.section	.text.startup,"ax",@progbits
	.p2align 4,,15
	.globl	main
	.type	main, @function
main:
.LFB6:
	# gdb.mi/mi2-amd64-entry-value.c:65
	.loc 1 65 0
	.cfi_startproc
# BLOCK 2 freq:10000 seq:0
# PRED: ENTRY [100.0%]  (fallthru)
	# gdb.mi/mi2-amd64-entry-value.c:66
	.loc 1 66 0
	movl	$5, %edi
	call	different
.LVL11:
	# gdb.mi/mi2-amd64-entry-value.c:67
	.loc 1 67 0
	call	data
.LVL12:
	movl	$5, %edi
	movl	%eax, %esi
	call	validity
.LVL13:
	# gdb.mi/mi2-amd64-entry-value.c:68
	.loc 1 68 0
	call	data2
.LVL14:
	movl	%eax, %edi
	call	invalid
.LVL15:
	# gdb.mi/mi2-amd64-entry-value.c:70
	.loc 1 70 0
	xorl	%eax, %eax
	.p2align 4,,1
# SUCC: EXIT [100.0%] 
	ret
	.cfi_endproc
.LFE6:
	.size	main, .-main
	.local	v
	.comm	v,4,4
	.text
.Letext0:
	.section	.note.GNU-stack,"",@progbits
