/* Copyright (C) 2012-2024 Free Software Foundation, Inc.

   This program is free software; you can redistribute it and/or modify
   it under the terms of the GNU General Public License as published by
   the Free Software Foundation; either version 3 of the License, or
   (at your option) any later version.

   This program is distributed in the hope that it will be useful,
   but WITHOUT ANY WARRANTY; without even the implied warranty of
   MERCHANTABILITY or FITNESS FOR A PARTICULAR PURPOSE.  See the
   GNU General Public License for more details.

   You should have received a copy of the GNU General Public License
   along with this program.  If not, see <http://www.gnu.org/licenses/>.

   This was created using clang -g -S dw2-restrict.c.

  */

	.text
	.file	"dw2-restrict.c"
	.globl	f                       # -- Begin function f
	.p2align	4, 0x90
	.type	f,@function
f:                                      # @f
.Lfunc_begin0:
	.file	1 "dw2-restrict.c"
	.loc	1 19 0                  # dw2-restrict.c:19:0
	.cfi_startproc
# BB#0:
	pushq	%rbp
.Lcfi0:
	.cfi_def_cfa_offset 16
.Lcfi1:
	.cfi_offset %rbp, -16
	movq	%rsp, %rbp
.Lcfi2:
	.cfi_def_cfa_register %rbp
	movq	%rdi, -8(%rbp)
.Ltmp0:
	.loc	1 20 10 prologue_end    # dw2-restrict.c:20:10
	movq	-8(%rbp), %rdi
	movsbl	(%rdi), %eax
	.loc	1 20 3 is_stmt 0        # dw2-restrict.c:20:3
	popq	%rbp
	retq
.Ltmp1:
.Lfunc_end0:
	.size	f, .Lfunc_end0-f
	.cfi_endproc
                                        # -- End function
	.globl	main                    # -- Begin function main
	.p2align	4, 0x90
	.type	main,@function
main:                                   # @main
.Lfunc_begin1:
	.loc	1 24 0 is_stmt 1        # dw2-restrict.c:24:0
	.cfi_startproc
# BB#0:
	pushq	%rbp
.Lcfi3:
	.cfi_def_cfa_offset 16
.Lcfi4:
	.cfi_offset %rbp, -16
	movq	%rsp, %rbp
.Lcfi5:
	.cfi_def_cfa_register %rbp
	subq	$16, %rsp
	movabsq	$.L.str, %rdi
	movl	$0, -4(%rbp)
.Ltmp2:
	.loc	1 25 10 prologue_end    # dw2-restrict.c:25:10
	callq	f
	.loc	1 25 3 is_stmt 0        # dw2-restrict.c:25:3
	addq	$16, %rsp
	popq	%rbp
	retq
.Ltmp3:
.Lfunc_end1:
	.size	main, .Lfunc_end1-main
	.cfi_endproc
                                        # -- End function
	.type	.L.str,@object          # @.str
	.section	.rodata.str1.1,"aMS",@progbits,1
.L.str:
	.asciz	"hi bob"
	.size	.L.str, 7

	.section	".note.GNU-stack","",@progbits