/* This testcase is part of GDB, the GNU debugger.

   Copyright 2012-2024 Free Software Foundation, Inc.

   This program is free software; you can redistribute it and/or modify
   it under the terms of the GNU General Public License as published by
   the Free Software Foundation; either version 3 of the License, or
   (at your option) any later version.

   This program is distributed in the hope that it will be useful,
   but WITHOUT ANY WARRANTY; without even the implied warranty of
   MERCHANTABILITY or FITNESS FOR A PARTICULAR PURPOSE.  See the
   GNU General Public License for more details.

   You should have received a copy of the GNU General Public License
   along with this program.  If not, see <http://www.gnu.org/licenses/>.  */

/* This was made from ../gdb.fortran/common-block.f90 using
	gfortran -dA -S -g
   and then hand-editing the assembly a bit to introduce
   DW_AT_data_member_location.

   Search for "#if 0" in this file to see the important edits.  */

	.file	"common-block.f90"
	.text
.Ltext0:
	.globl	in_
	.type	in_, @function
in_:
.LFB0:
	.file 1 "../gdb.fortran/common-block.f90"
	# ../gdb.fortran/common-block.f90:21
	.loc 1 21 0
	.cfi_startproc
	# basic block 2
	pushq	%rbp
	.cfi_def_cfa_offset 16
	.cfi_offset 6, -16
	movq	%rsp, %rbp
	.cfi_def_cfa_register 6
	subq	$16, %rsp
	# ../gdb.fortran/common-block.f90:34
	.loc 1 34 0
	movl	$5, -4(%rbp)
	# ../gdb.fortran/common-block.f90:35
	.loc 1 35 0
	movl	$55, -8(%rbp)
	# ../gdb.fortran/common-block.f90:21
	.loc 1 21 0
	movl	fo_o_(%rip), %eax
	# ../gdb.fortran/common-block.f90:37
	.loc 1 37 0
	cmpl	$11, %eax
	jne	.L2
	# basic block 3
	# ../gdb.fortran/common-block.f90:21
	.loc 1 21 0 discriminator 2
	movss	fo_o_+4(%rip), %xmm0
	# ../gdb.fortran/common-block.f90:37
	.loc 1 37 0 discriminator 2
	ucomiss	.LC0(%rip), %xmm0
	jp	.L2
	# basic block 4
	ucomiss	.LC0(%rip), %xmm0
	jne	.L2
	# basic block 5
	# ../gdb.fortran/common-block.f90:21
	.loc 1 21 0 discriminator 3
	movsd	fo_o_+8(%rip), %xmm0
	# ../gdb.fortran/common-block.f90:37
	.loc 1 37 0 discriminator 3
	ucomisd	.LC1(%rip), %xmm0
	jp	.L2
	# basic block 6
	ucomisd	.LC1(%rip), %xmm0
	je	.L8
.L2:
	# basic block 7
	# ../gdb.fortran/common-block.f90:37
	.loc 1 37 0 is_stmt 0 discriminator 1
	movl	$0, %eax
	call	_gfortran_abort
.L8:
	# basic block 8
	# ../gdb.fortran/common-block.f90:21
	.loc 1 21 0 is_stmt 1
	movl	foo_(%rip), %eax
	# ../gdb.fortran/common-block.f90:38
	.loc 1 38 0
	cmpl	$1, %eax
	jne	.L5
	# basic block 9
	# ../gdb.fortran/common-block.f90:21
	.loc 1 21 0 discriminator 2
	movss	foo_+4(%rip), %xmm0
	# ../gdb.fortran/common-block.f90:38
	.loc 1 38 0 discriminator 2
	ucomiss	.LC2(%rip), %xmm0
	jp	.L5
	# basic block 10
	ucomiss	.LC2(%rip), %xmm0
	jne	.L5
	# basic block 11
	# ../gdb.fortran/common-block.f90:21
	.loc 1 21 0 discriminator 3
	movsd	foo_+8(%rip), %xmm0
	# ../gdb.fortran/common-block.f90:38
	.loc 1 38 0 discriminator 3
	ucomisd	.LC3(%rip), %xmm0
	jp	.L5
	# basic block 12
	ucomisd	.LC3(%rip), %xmm0
	je	.L9
.L5:
	# basic block 13
	# ../gdb.fortran/common-block.f90:38
	.loc 1 38 0 is_stmt 0 discriminator 1
	movl	$0, %eax
	call	_gfortran_abort
.L9:
	# basic block 14
	# ../gdb.fortran/common-block.f90:40
	.loc 1 40 0 is_stmt 1
	movl	$0, fo_o_(%rip)
	# ../gdb.fortran/common-block.f90:42
	.loc 1 42 0
	leave
	.cfi_def_cfa 7, 8
	ret
	.cfi_endproc
.LFE0:
	.size	in_, .-in_
	.type	MAIN__, @function
MAIN__:
.LFB1:
	# ../gdb.fortran/common-block.f90:44
	.loc 1 44 0
	.cfi_startproc
	# basic block 2
	pushq	%rbp
	.cfi_def_cfa_offset 16
	.cfi_offset 6, -16
	movq	%rsp, %rbp
	.cfi_def_cfa_register 6
	# ../gdb.fortran/common-block.f90:57
	.loc 1 57 0
	movl	$1, foo_(%rip)
	# ../gdb.fortran/common-block.f90:58
	.loc 1 58 0
	movl	$0x40000000, %eax
	movl	%eax, foo_+4(%rip)
	# ../gdb.fortran/common-block.f90:59
	.loc 1 59 0
	movabsq	$4613937818241073152, %rax
	movq	%rax, foo_+8(%rip)
	# ../gdb.fortran/common-block.f90:61
	.loc 1 61 0
	movl	$11, fo_o_(%rip)
	# ../gdb.fortran/common-block.f90:62
	.loc 1 62 0
	movl	$0x41b00000, %eax
	movl	%eax, fo_o_+4(%rip)
	# ../gdb.fortran/common-block.f90:63
	.loc 1 63 0
	movabsq	$4629841154425225216, %rax
	movq	%rax, fo_o_+8(%rip)
	# ../gdb.fortran/common-block.f90:65
	.loc 1 65 0
	movl	$0, %eax
	call	in_
	# ../gdb.fortran/common-block.f90:67
	.loc 1 67 0
	popq	%rbp
	.cfi_def_cfa 7, 8
	ret
	.cfi_endproc
.LFE1:
	.size	MAIN__, .-MAIN__
	.globl	main
	.type	main, @function
main:
.LFB2:
	# ../gdb.fortran/common-block.f90:67
	.loc 1 67 0
	.cfi_startproc
	# basic block 2
	pushq	%rbp
	.cfi_def_cfa_offset 16
	.cfi_offset 6, -16
	movq	%rsp, %rbp
	.cfi_def_cfa_register 6
	subq	$16, %rsp
	movl	%edi, -4(%rbp)
	movq	%rsi, -16(%rbp)
	# ../gdb.fortran/common-block.f90:67
	.loc 1 67 0
	movq	-16(%rbp), %rdx
	movl	-4(%rbp), %eax
	movq	%rdx, %rsi
	movl	%eax, %edi
	call	_gfortran_set_args
	movl	$options.0.1570, %esi
	movl	$8, %edi
	call	_gfortran_set_options
	call	MAIN__
	movl	$0, %eax
	leave
	.cfi_def_cfa 7, 8
	ret
	.cfi_endproc
.LFE2:
	.size	main, .-main
	.comm	foo_,16,16
	.comm	fo_o_,16,16
	.section	.rodata
	.align 32
	.type	options.0.1570, @object
	.size	options.0.1570, 32
options.0.1570:
	.long	68
	.long	511
	.long	0
	.long	0
	.long	0
	.long	1
	.long	0
	.long	1
	.align 4
.LC0:
	.long	1102053376
	.align 8
.LC1:
	.long	0
	.long	1077968896
	.align 4
.LC2:
	.long	1073741824
	.align 8
.LC3:
	.long	0
	.long	1074266112
	.text
.Letext0:
	.section	.note.GNU-stack,"",@progbits
