/*
   Copyright 2022-2024 Free Software Foundation, Inc.

   This program is free software; you can redistribute it and/or modify
   it under the terms of the GNU General Public License as published by
   the Free Software Foundation; either version 3 of the License, or
   (at your option) any later version.

   This program is distributed in the hope that it will be useful,
   but WITHOUT ANY WARRANTY; without even the implied warranty of
   MERCHANTABILITY or FITNESS FOR A PARTICULAR PURPOSE.  See the
   GNU General Public License for more details.

   You should have received a copy of the GNU General Public License
   along with this program.  If not, see <http://www.gnu.org/licenses/>.  */

/* This file was generated from entry-value-typedef.cpp on an x86-64 Ubuntu
   20.04 using:

     $ g++ --version
     g++ (Ubuntu 9.4.0-1ubuntu1~20.04.1) 9.4.0
     $ g++ entry-value-typedef.cpp -O1 -fPIE -S -g -o entry-value-typedef-amd64.S
*/

	.file	"entry-value-typedef.cpp"
	.text
.Ltext0:
	.type	_ZL4funcRKi, @function
_ZL4funcRKi:
.LVL0:
.LFB1646:
	.file 1 "entry-value-typedef.cpp"
	.loc 1 27 1 view -0
	.cfi_startproc
	.cfi_personality 0x9b,DW.ref.__gxx_personality_v0
	.cfi_lsda 0x1b,.LLSDA1646
	.loc 1 27 1 is_stmt 0 view .LVU1
	pushq	%rbp
	.cfi_def_cfa_offset 16
	.cfi_offset 6, -16
	pushq	%rbx
	.cfi_def_cfa_offset 24
	.cfi_offset 3, -24
	subq	$392, %rsp
	.cfi_def_cfa_offset 416
	.loc 1 27 1 view .LVU2
	movq	%fs:40, %rax
	movq	%rax, 376(%rsp)
	xorl	%eax, %eax
	.loc 1 28 3 is_stmt 1 view .LVU3
	.loc 1 28 22 is_stmt 0 view .LVU4
	movq	%rsp, %rdi
.LVL1:
.LEHB0:
	.loc 1 28 22 view .LVU5
	call	_ZNSt7__cxx1119basic_ostringstreamIcSt11char_traitsIcESaIcEEC1Ev@PLT
.LVL2:
.LEHE0:
	.loc 1 29 3 is_stmt 1 view .LVU6
	.loc 1 29 18 is_stmt 0 view .LVU7
	movl	$32, %edi
	call	__cxa_allocate_exception@PLT
.LVL3:
	movq	%rax, %rbx
.LVL4:
.LBB403:
.LBI403:
	.file 2 "/usr/include/c++/9/sstream"
	.loc 2 677 7 is_stmt 1 view .LVU8
.LBB404:
	.loc 2 678 33 is_stmt 0 view .LVU9
	leaq	8(%rsp), %rsi
	movq	%rax, %rdi
.LEHB1:
	call	_ZNKSt7__cxx1115basic_stringbufIcSt11char_traitsIcESaIcEE3strEv@PLT
.LVL5:
.LEHE1:
	.loc 2 678 33 view .LVU10
.LBE404:
.LBE403:
	.loc 1 29 18 discriminator 2 view .LVU11
	movq	_ZNSt7__cxx1112basic_stringIcSt11char_traitsIcESaIcEED1Ev@GOTPCREL(%rip), %rdx
	leaq	_ZTINSt7__cxx1112basic_stringIcSt11char_traitsIcESaIcEEE(%rip), %rsi
	movq	%rbx, %rdi
.LEHB2:
	call	__cxa_throw@PLT
.LVL6:
.LEHE2:
.L6:
	endbr64
	movq	%rax, %rbx
	jmp	.L3
.LVL7:
.L5:
	.loc 1 29 18 discriminator 2 view .LVU12
	endbr64
	movq	%rax, %rbp
	.loc 1 29 18 view .LVU13
	movq	%rbx, %rdi
	call	__cxa_free_exception@PLT
.LVL8:
	movq	%rbp, %rbx
.LVL9:
.L3:
	.loc 1 28 22 view .LVU14
	movq	%rsp, %rdi
	call	_ZNSt7__cxx1119basic_ostringstreamIcSt11char_traitsIcESaIcEED1Ev@PLT
.LVL10:
	movq	%rbx, %rdi
.LEHB3:
	call	_Unwind_Resume@PLT
.LVL11:
.LEHE3:
	.cfi_endproc
.LFE1646:
	.globl	__gxx_personality_v0
	.section	.gcc_except_table,"a",@progbits
.LLSDA1646:
	.byte	0xff
	.byte	0xff
	.byte	0x1
	.uleb128 .LLSDACSE1646-.LLSDACSB1646
.LLSDACSB1646:
	.uleb128 .LEHB0-.LFB1646
	.uleb128 .LEHE0-.LEHB0
	.uleb128 0
	.uleb128 0
	.uleb128 .LEHB1-.LFB1646
	.uleb128 .LEHE1-.LEHB1
	.uleb128 .L5-.LFB1646
	.uleb128 0
	.uleb128 .LEHB2-.LFB1646
	.uleb128 .LEHE2-.LEHB2
	.uleb128 .L6-.LFB1646
	.uleb128 0
	.uleb128 .LEHB3-.LFB1646
	.uleb128 .LEHE3-.LEHB3
	.uleb128 0
	.uleb128 0
.LLSDACSE1646:
	.text
	.size	_ZL4funcRKi, .-_ZL4funcRKi
	.globl	main
	.type	main, @function
main:
.LFB1647:
	.loc 1 34 1 is_stmt 1 view -0
	.cfi_startproc
	endbr64
	pushq	%rax
	.cfi_def_cfa_offset 16
	popq	%rax
	.cfi_def_cfa_offset 8
	subq	$24, %rsp
	.cfi_def_cfa_offset 32
	.loc 1 34 1 is_stmt 0 view .LVU16
	movq	%fs:40, %rax
	movq	%rax, 8(%rsp)
	xorl	%eax, %eax
	.loc 1 35 3 is_stmt 1 view .LVU17
	.loc 1 35 9 is_stmt 0 view .LVU18
	movl	$1234, 4(%rsp)
	.loc 1 35 8 view .LVU19
	leaq	4(%rsp), %rdi
	call	_ZL4funcRKi
.LVL12:
	.cfi_endproc
.LFE1647:
	.size	main, .-main
	.weak	_ZTSNSt7__cxx1112basic_stringIcSt11char_traitsIcESaIcEEE
	.section	.rodata._ZTSNSt7__cxx1112basic_stringIcSt11char_traitsIcESaIcEEE,"aG",@progbits,_ZTSNSt7__cxx1112basic_stringIcSt11char_traitsIcESaIcEEE,comdat
	.align 32
	.type	_ZTSNSt7__cxx1112basic_stringIcSt11char_traitsIcESaIcEEE, @object
	.size	_ZTSNSt7__cxx1112basic_stringIcSt11char_traitsIcESaIcEEE, 53
_ZTSNSt7__cxx1112basic_stringIcSt11char_traitsIcESaIcEEE:
	.string	"NSt7__cxx1112basic_stringIcSt11char_traitsIcESaIcEEE"
	.weak	_ZTINSt7__cxx1112basic_stringIcSt11char_traitsIcESaIcEEE
	.section	.data.rel.ro._ZTINSt7__cxx1112basic_stringIcSt11char_traitsIcESaIcEEE,"awG",@progbits,_ZTINSt7__cxx1112basic_stringIcSt11char_traitsIcESaIcEEE,comdat
	.align 8
	.type	_ZTINSt7__cxx1112basic_stringIcSt11char_traitsIcESaIcEEE, @object
	.size	_ZTINSt7__cxx1112basic_stringIcSt11char_traitsIcESaIcEEE, 16
_ZTINSt7__cxx1112basic_stringIcSt11char_traitsIcESaIcEEE:
	.quad	_ZTVN10__cxxabiv117__class_type_infoE+16
	.quad	_ZTSNSt7__cxx1112basic_stringIcSt11char_traitsIcESaIcEEE
	.text
.Letext0:
	.file 3 "/usr/include/c++/9/bits/basic_string.h"
	.file 4 "/usr/include/c++/9/cwchar"
	.file 5 "/usr/include/c++/9/new"
	.file 6 "/usr/include/c++/9/bits/exception_ptr.h"
	.file 7 "/usr/include/x86_64-linux-gnu/c++/9/bits/c++config.h"
	.file 8 "/usr/include/c++/9/type_traits"
	.file 9 "/usr/include/c++/9/bits/stl_pair.h"
	.file 10 "/usr/include/c++/9/debug/debug.h"
	.file 11 "/usr/include/c++/9/bits/char_traits.h"
	.file 12 "/usr/include/c++/9/cstdint"
	.file 13 "/usr/include/c++/9/clocale"
	.file 14 "/usr/include/c++/9/bits/allocator.h"
	.file 15 "/usr/include/c++/9/cstdlib"
	.file 16 "/usr/include/c++/9/cstdio"
	.file 17 "/usr/include/c++/9/bits/alloc_traits.h"
	.file 18 "/usr/include/c++/9/initializer_list"
	.file 19 "/usr/include/c++/9/system_error"
	.file 20 "/usr/include/c++/9/bits/ios_base.h"
	.file 21 "/usr/include/c++/9/cwctype"
	.file 22 "/usr/include/c++/9/ostream"
	.file 23 "/usr/include/c++/9/streambuf"
	.file 24 "/usr/include/c++/9/bits/stl_iterator_base_types.h"
	.file 25 "/usr/include/c++/9/bits/ptr_traits.h"
	.file 26 "/usr/include/c++/9/bits/cpp_type_traits.h"
	.file 27 "/usr/include/c++/9/bits/move.h"
	.file 28 "/usr/include/c++/9/bits/basic_ios.h"
	.file 29 "/usr/include/c++/9/iosfwd"
	.file 30 "/usr/include/c++/9/bits/predefined_ops.h"
	.file 31 "/usr/include/c++/9/ext/new_allocator.h"
	.file 32 "/usr/include/c++/9/ext/numeric_traits.h"
	.file 33 "/usr/include/c++/9/ext/alloc_traits.h"
	.file 34 "/usr/include/c++/9/bits/stl_iterator.h"
	.file 35 "/usr/lib/gcc/x86_64-linux-gnu/9/include/stddef.h"
	.file 36 "<built-in>"
	.file 37 "/usr/include/x86_64-linux-gnu/bits/types/wint_t.h"
	.file 38 "/usr/include/x86_64-linux-gnu/bits/types/__mbstate_t.h"
	.file 39 "/usr/include/x86_64-linux-gnu/bits/types/mbstate_t.h"
	.file 40 "/usr/include/x86_64-linux-gnu/bits/types/__FILE.h"
	.file 41 "/usr/include/x86_64-linux-gnu/bits/types/struct_FILE.h"
	.file 42 "/usr/include/x86_64-linux-gnu/bits/types/FILE.h"
	.file 43 "/usr/include/wchar.h"
	.file 44 "/usr/include/x86_64-linux-gnu/bits/wchar2.h"
	.file 45 "/usr/include/x86_64-linux-gnu/bits/types/struct_tm.h"
	.file 46 "/usr/include/x86_64-linux-gnu/bits/types.h"
	.file 47 "/usr/include/x86_64-linux-gnu/bits/stdint-intn.h"
	.file 48 "/usr/include/x86_64-linux-gnu/bits/stdint-uintn.h"
	.file 49 "/usr/include/stdint.h"
	.file 50 "/usr/include/locale.h"
	.file 51 "/usr/include/time.h"
	.file 52 "/usr/include/stdlib.h"
	.file 53 "/usr/include/x86_64-linux-gnu/bits/stdlib-float.h"
	.file 54 "/usr/include/x86_64-linux-gnu/bits/stdlib-bsearch.h"
	.file 55 "/usr/include/x86_64-linux-gnu/bits/stdlib.h"
	.file 56 "/usr/include/x86_64-linux-gnu/bits/types/__fpos_t.h"
	.file 57 "/usr/include/stdio.h"
	.file 58 "/usr/include/x86_64-linux-gnu/bits/sys_errlist.h"
	.file 59 "/usr/include/x86_64-linux-gnu/bits/stdio2.h"
	.file 60 "/usr/include/x86_64-linux-gnu/bits/stdio.h"
	.file 61 "/usr/include/errno.h"
	.file 62 "/usr/include/x86_64-linux-gnu/bits/wctype-wchar.h"
	.file 63 "/usr/include/wctype.h"
	.section	.data.rel.local.DW.ref.__gxx_personality_v0,"awG",@progbits,DW.ref.__gxx_personality_v0,comdat
	.align 8
	.type	DW.ref.__gxx_personality_v0, @object
	.size	DW.ref.__gxx_personality_v0, 8
DW.ref.__gxx_personality_v0:
	.quad	__gxx_personality_v0
	.ident	"GCC: (Ubuntu 9.4.0-1ubuntu1~20.04.1) 9.4.0"
	.section	.note.GNU-stack,"",@progbits
	.section	.note.gnu.property,"a"
	.align 8
	.long	 1f - 0f
	.long	 4f - 1f
	.long	 5
0:
	.string	 "GNU"
1:
	.align 8
	.long	 0xc0000002
	.long	 3f - 2f
2:
	.long	 0x3
3:
	.align 8
4:
