/*
   Copyright 2022-2024 Free Software Foundation, Inc.

   This program is free software; you can redistribute it and/or modify
   it under the terms of the GNU General Public License as published by
   the Free Software Foundation; either version 3 of the License, or
   (at your option) any later version.

   This program is distributed in the hope that it will be useful,
   but WITHOUT ANY WARRANTY; without even the implied warranty of
   MERCHANTABILITY or FITNESS FOR A PARTICULAR PURPOSE.  See the
   GNU General Public License for more details.

   You should have received a copy of the GNU General Public License
   along with this program.  If not, see <http://www.gnu.org/licenses/>.  */

/* This file was generated from entry-value-typedef.cpp on an aarch64 Ubuntu
   14.04 using:

     $ g++ --version
     g++ (Ubuntu/Linaro 4.8.4-2ubuntu1~14.04.4) 4.8.4
     $ g++ entry-value-typedef.cpp -O1 -S -g -o entry-value-typedef-aarch64.S -std=c++11
*/

	.cpu cortex-a53+fp+simd
	.file	"entry-value-typedef.cpp"
	.text
.Ltext0:
	.align	2
	.type	_ZL4funcRKi, %function
_ZL4funcRKi:
.LFB1299:
	.file 1 "entry-value-typedef.cpp"
	.loc 1 27 0
	.cfi_startproc
	.cfi_personality 0x9b,DW.ref.__gxx_personality_v0
	.cfi_lsda 0x1b,.LLSDA1299
.LVL0:
	stp	x29, x30, [sp, -384]!
	.cfi_def_cfa_offset 384
	.cfi_offset 29, -384
	.cfi_offset 30, -376
	add	x29, sp, 0
	.cfi_def_cfa_register 29
	stp	x19, x20, [sp,16]
	.cfi_offset 19, -368
	.cfi_offset 20, -360
.LBB293:
	.loc 1 28 0
	add	x20, x29, 32
	mov	x0, x20
.LVL1:
	mov	w1, 16
.LEHB0:
	bl	_ZNSt19basic_ostringstreamIcSt11char_traitsIcESaIcEEC1ESt13_Ios_Openmode
.LEHE0:
.LVL2:
	.loc 1 29 0
	mov	x0, 8
	bl	__cxa_allocate_exception
.LVL3:
	mov	x19, x0
.LVL4:
.LBB294:
.LBB295:
	.file 2 "/usr/include/c++/4.8/sstream"
	.loc 2 472 0
	mov	x8, x0
	add	x0, x20, 8
.LEHB1:
	bl	_ZNKSt15basic_stringbufIcSt11char_traitsIcESaIcEE3strEv
.LEHE1:
.LVL5:
.LBE295:
.LBE294:
	.loc 1 29 0 discriminator 1
	mov	x0, x19
	adrp	x1, :got:_ZTISs
	ldr	x1, [x1, #:got_lo12:_ZTISs]
	adrp	x2, :got:_ZNSsD1Ev
	ldr	x2, [x2, #:got_lo12:_ZNSsD1Ev]
.LEHB2:
	bl	__cxa_throw
.LEHE2:
.LVL6:
.L4:
	mov	x20, x0
.LVL7:
	.loc 1 29 0 is_stmt 0
	mov	x0, x19
	bl	__cxa_free_exception
.LVL8:
	mov	x19, x20
	b	.L3
.LVL9:
.L5:
	mov	x19, x0
.LVL10:
.L3:
	add	x0, x29, 32
.LVL11:
	bl	_ZNSt19basic_ostringstreamIcSt11char_traitsIcESaIcEED1Ev
.LVL12:
	mov	x0, x19
.LEHB3:
	bl	_Unwind_Resume
.LEHE3:
.LVL13:
.LBE293:
	.cfi_endproc
.LFE1299:
	.global	__gxx_personality_v0
	.section	.gcc_except_table,"a",%progbits
.LLSDA1299:
	.byte	0xff
	.byte	0xff
	.byte	0x1
	.uleb128 .LLSDACSE1299-.LLSDACSB1299
.LLSDACSB1299:
	.uleb128 .LEHB0-.LFB1299
	.uleb128 .LEHE0-.LEHB0
	.uleb128 0
	.uleb128 0
	.uleb128 .LEHB1-.LFB1299
	.uleb128 .LEHE1-.LEHB1
	.uleb128 .L4-.LFB1299
	.uleb128 0
	.uleb128 .LEHB2-.LFB1299
	.uleb128 .LEHE2-.LEHB2
	.uleb128 .L5-.LFB1299
	.uleb128 0
	.uleb128 .LEHB3-.LFB1299
	.uleb128 .LEHE3-.LEHB3
	.uleb128 0
	.uleb128 0
.LLSDACSE1299:
	.text
	.size	_ZL4funcRKi, .-_ZL4funcRKi
	.align	2
	.global	main
	.type	main, %function
main:
.LFB1300:
	.loc 1 34 0 is_stmt 1
	.cfi_startproc
	stp	x29, x30, [sp, -32]!
	.cfi_def_cfa_offset 32
	.cfi_offset 29, -32
	.cfi_offset 30, -24
	add	x29, sp, 0
	.cfi_def_cfa_register 29
	.loc 1 35 0
	add	x0, x29, 32
	mov	w1, 1234
	str	w1, [x0,-4]!
	bl	_ZL4funcRKi
.LVL14:
	.cfi_endproc
.LFE1300:
	.size	main, .-main
	.weak	_ZTISs
	.section	.data.rel.ro._ZTISs,"awG",%progbits,_ZTISs,comdat
	.align	3
	.type	_ZTISs, %object
	.size	_ZTISs, 16
_ZTISs:
	.xword	_ZTVN10__cxxabiv117__class_type_infoE+16
	.xword	_ZTSSs
	.weak	_ZTSSs
	.section	.rodata._ZTSSs,"aG",%progbits,_ZTSSs,comdat
	.align	3
	.type	_ZTSSs, %object
	.size	_ZTSSs, 3
_ZTSSs:
	.string	"Ss"
	.text
.Letext0:
	.file 3 "/usr/include/libio.h"
	.file 4 "/usr/include/stdio.h"
	.file 5 "/usr/lib/gcc/aarch64-linux-gnu/4.8/include/stdarg.h"
	.file 6 "<built-in>"
	.file 7 "/usr/lib/gcc/aarch64-linux-gnu/4.8/include/stddef.h"
	.file 8 "/usr/include/wchar.h"
	.file 9 "/usr/include/c++/4.8/cwchar"
	.file 10 "/usr/include/c++/4.8/bits/exception_ptr.h"
	.file 11 "/usr/include/aarch64-linux-gnu/c++/4.8/bits/c++config.h"
	.file 12 "/usr/include/c++/4.8/bits/cpp_type_traits.h"
	.file 13 "/usr/include/c++/4.8/bits/stl_pair.h"
	.file 14 "/usr/include/c++/4.8/bits/stl_iterator_base_types.h"
	.file 15 "/usr/include/c++/4.8/bits/char_traits.h"
	.file 16 "/usr/include/c++/4.8/cstdint"
	.file 17 "/usr/include/c++/4.8/clocale"
	.file 18 "/usr/include/c++/4.8/bits/allocator.h"
	.file 19 "/usr/include/c++/4.8/cstdlib"
	.file 20 "/usr/include/c++/4.8/cstdio"
	.file 21 "/usr/include/c++/4.8/bits/basic_string.h"
	.file 22 "/usr/include/c++/4.8/bits/basic_string.tcc"
	.file 23 "/usr/include/c++/4.8/initializer_list"
	.file 24 "/usr/include/c++/4.8/bits/ios_base.h"
	.file 25 "/usr/include/c++/4.8/cwctype"
	.file 26 "/usr/include/c++/4.8/ostream"
	.file 27 "/usr/include/c++/4.8/streambuf"
	.file 28 "/usr/include/c++/4.8/bits/basic_ios.h"
	.file 29 "/usr/include/c++/4.8/bits/stl_iterator_base_funcs.h"
	.file 30 "/usr/include/c++/4.8/iosfwd"
	.file 31 "/usr/include/aarch64-linux-gnu/bits/wchar2.h"
	.file 32 "/usr/include/time.h"
	.file 33 "/usr/include/c++/4.8/ext/new_allocator.h"
	.file 34 "/usr/include/c++/4.8/ext/numeric_traits.h"
	.file 35 "/usr/include/c++/4.8/bits/stl_iterator.h"
	.file 36 "/usr/include/c++/4.8/ext/atomicity.h"
	.file 37 "/usr/include/c++/4.8/debug/debug.h"
	.file 38 "/usr/include/stdint.h"
	.file 39 "/usr/include/locale.h"
	.file 40 "/usr/include/aarch64-linux-gnu/bits/types.h"
	.file 41 "/usr/include/aarch64-linux-gnu/c++/4.8/bits/atomic_word.h"
	.file 42 "/usr/include/stdlib.h"
	.file 43 "/usr/include/aarch64-linux-gnu/bits/stdlib-float.h"
	.file 44 "/usr/include/aarch64-linux-gnu/bits/stdlib-bsearch.h"
	.file 45 "/usr/include/aarch64-linux-gnu/bits/stdlib.h"
	.file 46 "/usr/include/c++/4.8/ext/type_traits.h"
	.file 47 "/usr/include/_G_config.h"
	.file 48 "/usr/include/aarch64-linux-gnu/bits/stdio2.h"
	.file 49 "/usr/include/aarch64-linux-gnu/bits/stdio.h"
	.file 50 "/usr/include/wctype.h"
	.file 51 "/usr/include/aarch64-linux-gnu/c++/4.8/bits/gthr-default.h"
	.section	.data.DW.ref.__gxx_personality_v0,"awG",%progbits,DW.ref.__gxx_personality_v0,comdat
	.align	3
	.type	DW.ref.__gxx_personality_v0, %object
	.size	DW.ref.__gxx_personality_v0, 8
DW.ref.__gxx_personality_v0:
	.xword	__gxx_personality_v0
	.ident	"GCC: (Ubuntu/Linaro 4.8.4-2ubuntu1~14.04.4) 4.8.4"
	.section	.note.GNU-stack,"",%progbits
