/* This testcase is part of GDB, the GNU debugger.

   Copyright 2012-2024 Free Software Foundation, Inc.

   This program is free software; you can redistribute it and/or modify
   it under the terms of the GNU General Public License as published by
   the Free Software Foundation; either version 3 of the License, or
   (at your option) any later version.

   This program is distributed in the hope that it will be useful,
   but WITHOUT ANY WARRANTY; without even the implied warranty of
   MERCHANTABILITY or FITNESS FOR A PARTICULAR PURPOSE.  See the
   GNU General Public License for more details.

   You should have received a copy of the GNU General Public License
   along with this program.  If not, see <http://www.gnu.org/licenses/>.

   This file was created by doing:
   gcc -gdwarf-4 -gsplit-debug -S -dA fission-base.c
   and then massaging the output.
*/

	.file	"fission-base.c"

	.text
.Ltext0:

	.globl	func
	.type	func, @function
func:
.LFB0:
	.file 1 "fission-base.c"
	# fission-base.c:20
	.loc 1 20 0
	.cfi_startproc
	pushq	%rbp	#
	.cfi_def_cfa_offset 16
	.cfi_offset 6, -16
	movq	%rsp, %rbp	#,
	.cfi_def_cfa_register 6
	movl	%edi, -4(%rbp)	# arg, arg
	# fission-base.c:21
	.loc 1 21 0
	movl	-4(%rbp), %eax	# arg, tmp61
	addl	$1, %eax	#, D.1617
	# fission-base.c:22
	.loc 1 22 0
	popq	%rbp	#
	.cfi_def_cfa 7, 8
	ret
	.cfi_endproc
.LFE0:
	.size	func, .-func
	.globl	main
	.type	main, @function
main:
.LFB1:
	# fission-base.c:26
	.loc 1 26 0
	.cfi_startproc
	pushq	%rbp	#
	.cfi_def_cfa_offset 16
	.cfi_offset 6, -16
	movq	%rsp, %rbp	#,
	.cfi_def_cfa_register 6
	# fission-base.c:27
	.loc 1 27 0
	movl	$-1, %edi	#,
	call	func	#
	# fission-base.c:28
	.loc 1 28 0
	popq	%rbp	#
	.cfi_def_cfa 7, 8
	ret
	.cfi_endproc
.LFE1:
	.size	main, .-main
.Letext0:
	.section	.note.GNU-stack,"",@progbits
