	.file	"implptr.c"
	.text
.Ltext0:
	.p2align 4,,15
	.globl	foo
	.type	foo, @function
foo:
.LFB1:
	.file 1 "gdb.dwarf2/implptr.c"
	.loc 1 45 0
	.cfi_startproc
.LVL0:
	.loc 1 45 0
	movl	4(%esp), %eax
.LVL1:
.LBB6:
.LBB7:
	.loc 1 36 0
	addl	$1, u
.LVL2:
	.loc 1 38 0
	addl	$1, u+4
.LVL3:
	.loc 1 40 0
	addl	$1, u+8
.LVL4:
.LBE7:
.LBE6:
.LBB8:
.LBB9:
	.loc 1 36 0
	addl	$1, u+12
.LVL5:
	.loc 1 38 0
	addl	$1, u+16
.LVL6:
	.loc 1 40 0
	addl	$1, u+20
.LBE9:
.LBE8:
	.loc 1 52 0
	leal	(%eax,%eax,4), %eax
	.loc 1 53 0
	ret
	.cfi_endproc
.LFE1:
	.size	foo, .-foo
	.p2align 4,,15
	.globl	bar
	.type	bar, @function
bar:
.LFB2:
	.loc 1 61 0
	.cfi_startproc
.LVL7:
	.loc 1 65 0
	movl	4(%esp), %eax
	addl	$1, %eax
	.loc 1 67 0
	ret
	.cfi_endproc
.LFE2:
	.size	bar, .-bar
	.section	.text.startup,"ax",@progbits
	.p2align 4,,15
	.globl	main
	.type	main, @function
main:
.LFB3:
	.loc 1 70 0
	.cfi_startproc
	pushl	%ebx
	.cfi_def_cfa_offset 8
	.cfi_offset 3, -8
	subl	$4, %esp
	.cfi_def_cfa_offset 12
	.loc 1 71 0
	movl	$5, (%esp)
	call	bar
.LVL8:
	movl	$23, (%esp)
	movl	%eax, %ebx
	call	foo
.LVL9:
	.loc 1 72 0
	addl	$4, %esp
	.cfi_def_cfa_offset 8
	.loc 1 71 0
	addl	%ebx, %eax
	.loc 1 72 0
	popl	%ebx
	.cfi_def_cfa_offset 4
	.cfi_restore 3
	ret
	.cfi_endproc
.LFE3:
	.size	main, .-main
	.comm	u,24,4
	.text
.Letext0:
	.section	.note.GNU-stack,"",@progbits
