/*
   Copyright 2009-2024 Free Software Foundation, Inc.

   This program is free software; you can redistribute it and/or modify
   it under the terms of the GNU General Public License as published by
   the Free Software Foundation; either version 3 of the License, or
   (at your option) any later version.

   This program is distributed in the hope that it will be useful,
   but WITHOUT ANY WARRANTY; without even the implied warranty of
   MERCHANTABILITY or FITNESS FOR A PARTICULAR PURPOSE.  See the
   GNU General Public License for more details.

   You should have received a copy of the GNU General Public License
   along with this program.  If not, see <http://www.gnu.org/licenses/>.  */

/* This was compiled from a trivial program just to test the
   DW_OP_stack_value and DW_OP_implicit_value operators:

    unsigned int func (unsigned int arg) __attribute__ ((__noinline__));

    unsigned int func (unsigned int arg)
    {
      unsigned int uses_stack_op = 23;
      unsigned int uses_lit_op = 0x7fffffff;
      unsigned int result = arg;

      if (arg % 2)
	result += uses_lit_op + uses_stack_op;
      else
	{
	  ++uses_stack_op;
	  ++uses_lit_op;

	  result -= uses_stack_op + uses_lit_op;
	}

      return result * uses_stack_op;  // line 19, see the .exp file
    }

    int main (int argc, char *argv[])
    {
      return func (1024);
    }

  Then it was compiled with:
	
	gcc -fvar-tracking{,-assignments} -gdwarf-3
	-fno-inline{,-functions,-small-functions,-functions-called-once}
	-O2

*/

	.file	"valop.c"
	.text
.Ltext0:
	.p2align 4,,15
.globl func
	.type	func, @function
func:
.LFB0:
	.file 1 "valop.c"
	.loc 1 4 0
	.cfi_startproc
.LVL0:
	pushl	%ebp
	.cfi_def_cfa_offset 8
	movl	%esp, %ebp
	.cfi_offset 5, -8
	.cfi_def_cfa_register 5
	.loc 1 4 0
	movl	8(%ebp), %eax
.LVL1:
	.loc 1 9 0
	testb	$1, %al
	jne	.L5
.LVL2:
	.loc 1 16 0
	addl	$2147483624, %eax
.LVL3:
	.loc 1 13 0
	movl	$24, %edx
.LVL4:
	.loc 1 16 0
	imull	%edx, %eax
.LVL5:
	.loc 1 20 0
	popl	%ebp
	.cfi_remember_state
	.cfi_restore 5
	.cfi_def_cfa 4, 4
	ret
.LVL6:
	.p2align 4,,7
	.p2align 3
.L5:
	.cfi_restore_state
	.loc 1 10 0
	subl	$2147483626, %eax
.LVL7:
	.loc 1 5 0
	movl	$23, %edx
.LVL8:
	.loc 1 16 0
	imull	%edx, %eax
.LVL9:
	.loc 1 20 0
	popl	%ebp
	.cfi_def_cfa 4, 4
	.cfi_restore 5
	ret
	.cfi_endproc
.LFE0:
	.size	func, .-func
	.p2align 4,,15
.globl _start
	.type	_start, @function
_start:
.LFB1:
	.loc 1 23 0
	.cfi_startproc
.LVL10:
	pushl	%ebp
	.cfi_def_cfa_offset 8
	movl	%esp, %ebp
	.cfi_offset 5, -8
	.cfi_def_cfa_register 5
	subl	$4, %esp
	.loc 1 24 0
	movl	$1024, (%esp)
	call	func
.LVL11:
	.loc 1 25 0
	leave
	.cfi_restore 5
	.cfi_def_cfa 4, 4
	ret
	.cfi_endproc
.LFE1:
	.size	_start, .-_start
.Letext0:
	.section	.note.GNU-stack,"",@progbits
