/* This testcase is part of GDB, the GNU debugger.

   Copyright 2010-2024 Free Software Foundation, Inc.

   This program is free software; you can redistribute it and/or modify
   it under the terms of the GNU General Public License as published by
   the Free Software Foundation; either version 3 of the License, or
   (at your option) any later version.

   This program is distributed in the hope that it will be useful,
   but WITHOUT ANY WARRANTY; without even the implied warranty of
   MERCHANTABILITY or FITNESS FOR A PARTICULAR PURPOSE.  See the
   GNU General Public License for more details.

   You should have received a copy of the GNU General Public License
   along with this program.  If not, see <http://www.gnu.org/licenses/>.  */

/* This source file was generated from watch-notconst2.c using the following
   command line:

   gcc -m32 -dA -S -g -O2 watch-notconst2.c -o watch-notconst2.S

*/


	.file	"watch-notconst2.c"
	.text
.Ltext0:
	.cfi_sections	.debug_frame
	.p2align 4,,15
.globl f
	.type	f, @function
f:
.LFB0:
	.file 1 "watch-notconst2.c"
	# watch-notconst2.c:30
	.loc 1 30 0
	.cfi_startproc
.LVL0:
	# basic block 2
	pushl	%ebp
	.cfi_def_cfa_offset 8
	movl	%esp, %ebp
	.cfi_offset 5, -8
	.cfi_def_cfa_register 5
	pushl	%ebx
	subl	$20, %esp
	# watch-notconst2.c:30
	.loc 1 30 0
	movl	8(%ebp), %ebx
	.cfi_offset 3, -12
	# watch-notconst2.c:32
	.loc 1 32 0
	movl	$2, (%esp)
	call	g
.LVL1:
	# watch-notconst2.c:34
	.loc 1 34 0
	movl	%ebx, 8(%ebp)
	# watch-notconst2.c:35
	.loc 1 35 0
	addl	$20, %esp
	popl	%ebx
	.cfi_restore 3
	popl	%ebp
	.cfi_restore 5
	.cfi_def_cfa 4, 4
.LVL2:
	# watch-notconst2.c:34
	.loc 1 34 0
	jmp	g
	.cfi_endproc
.LFE0:
	.size	f, .-f
.Letext0:
	.section	.note.GNU-stack,"",@progbits
