/* This testcase is part of GDB, the GNU debugger.

   Copyright 2014-2024 Free Software Foundation, Inc.

   This program is free software; you can redistribute it and/or modify
   it under the terms of the GNU General Public License as published by
   the Free Software Foundation; either version 3 of the License, or
   (at your option) any later version.

   This program is distributed in the hope that it will be useful,
   but WITHOUT ANY WARRANTY; without even the implied warranty of
   MERCHANTABILITY or FITNESS FOR A PARTICULAR PURPOSE.  See the
   GNU General Public License for more details.

   You should have received a copy of the GNU General Public License
   along with this program.  If not, see <http://www.gnu.org/licenses/>.  */

/* This file was generated using:

   $ clang++ -g namelessclass.cc -std=c++11 -S -o namelessclass.S

  with

  $ clang++ -v
  clang version 3.3 (tags/RELEASE_33/final)
  Target: x86_64-redhat-linux-gnu
  Thread model: posix

  This is a test for c++/16597.  */

	.file	"namelessclass.cc"
	.text
.Ltext_begin:
	.data
	.file	1 "namelessclass.cc"
	.text
	.globl	main
	.align	16, 0x90
	.type	main,@function
main:                                   # @main
	.cfi_startproc
.Lfunc_begin0:
	.loc	1 42 0                  # namelessclass.cc:42:0
# BB#0:
	pushq	%rbp
.Ltmp2:
	.cfi_def_cfa_offset 16
.Ltmp3:
	.cfi_offset %rbp, -16
	movq	%rsp, %rbp
.Ltmp4:
	.cfi_def_cfa_register %rbp
	subq	$16, %rsp
	leaq	-8(%rbp), %rdi
	movl	$0, -4(%rbp)
.Ltmp5:
	#DEBUG_VALUE: main:a <- RDI+0
	.loc	1 43 0 prologue_end     # namelessclass.cc:43:0
	callq	_ZN1AC1Ev
	leaq	-8(%rbp), %rdi
.Ltmp6:
	.loc	1 45 0                  # namelessclass.cc:45:0
	callq	_ZN1A4doitEv
	addq	$16, %rsp
	popq	%rbp
	ret
.Ltmp7:
.Ltmp8:
	.size	main, .Ltmp8-main
.Lfunc_end0:
	.cfi_endproc

	.section	.text._ZN1AC1Ev,"axG",@progbits,_ZN1AC1Ev,comdat
	.weak	_ZN1AC1Ev
	.align	16, 0x90
	.type	_ZN1AC1Ev,@function
_ZN1AC1Ev:                              # @_ZN1AC1Ev
	.cfi_startproc
.Lfunc_begin1:
	.loc	1 25 0                  # namelessclass.cc:25:0
# BB#0:
	pushq	%rbp
.Ltmp11:
	.cfi_def_cfa_offset 16
.Ltmp12:
	.cfi_offset %rbp, -16
	movq	%rsp, %rbp
.Ltmp13:
	.cfi_def_cfa_register %rbp
	subq	$16, %rsp
	movq	%rdi, -8(%rbp)
	movq	-8(%rbp), %rdi
	.loc	1 25 0 prologue_end     # namelessclass.cc:25:0
.Ltmp14:
	callq	_ZN1AC2Ev
	addq	$16, %rsp
	popq	%rbp
	ret
.Ltmp15:
.Ltmp16:
	.size	_ZN1AC1Ev, .Ltmp16-_ZN1AC1Ev
.Lfunc_end1:
	.cfi_endproc

	.section	.text._ZN1A4doitEv,"axG",@progbits,_ZN1A4doitEv,comdat
	.weak	_ZN1A4doitEv
	.align	16, 0x90
	.type	_ZN1A4doitEv,@function
_ZN1A4doitEv:                           # @_ZN1A4doitEv
	.cfi_startproc
.Lfunc_begin2:
	.loc	1 26 0                  # namelessclass.cc:26:0
# BB#0:
	pushq	%rbp
.Ltmp19:
	.cfi_def_cfa_offset 16
.Ltmp20:
	.cfi_offset %rbp, -16
	movq	%rsp, %rbp
.Ltmp21:
	.cfi_def_cfa_register %rbp
	subq	$32, %rsp
	movq	%rdi, -8(%rbp)
	movq	-8(%rbp), %rdi
	.loc	1 27 0 prologue_end     # namelessclass.cc:27:0
.Ltmp22:
	movq	%rdi, -24(%rbp)
	movq	-24(%rbp), %rsi
	callq	_ZN1A5fudgeIZNS_4doitEvEUlvE_EEiT_
	movl	%eax, -12(%rbp)
	.loc	1 31 0                  # namelessclass.cc:31:0
	movl	-12(%rbp), %eax
	addq	$32, %rsp
	popq	%rbp
	ret
.Ltmp23:
.Ltmp24:
	.size	_ZN1A4doitEv, .Ltmp24-_ZN1A4doitEv
.Lfunc_end2:
	.cfi_endproc

	.section	.text._ZN1A5fudgeIZNS_4doitEvEUlvE_EEiT_,"axG",@progbits,_ZN1A5fudgeIZNS_4doitEvEUlvE_EEiT_,comdat
	.weak	_ZN1A5fudgeIZNS_4doitEvEUlvE_EEiT_
	.align	16, 0x90
	.type	_ZN1A5fudgeIZNS_4doitEvEUlvE_EEiT_,@function
_ZN1A5fudgeIZNS_4doitEvEUlvE_EEiT_:     # @_ZN1A5fudgeIZNS_4doitEvEUlvE_EEiT_
	.cfi_startproc
.Lfunc_begin3:
	.loc	1 36 0                  # namelessclass.cc:36:0
# BB#0:
	pushq	%rbp
.Ltmp27:
	.cfi_def_cfa_offset 16
.Ltmp28:
	.cfi_offset %rbp, -16
	movq	%rsp, %rbp
.Ltmp29:
	.cfi_def_cfa_register %rbp
	subq	$16, %rsp
	leaq	-16(%rbp), %rax
	movq	%rdi, -8(%rbp)
	movq	%rsi, -16(%rbp)
	#DEBUG_VALUE: fudge<<lambda at namelessclass.cc:27:22> >:func <- RAX+0
	.loc	1 36 34 prologue_end    # namelessclass.cc:36:34
.Ltmp30:
	movq	%rax, %rdi
	callq	_ZZN1A4doitEvENKUlvE_clEv
.Ltmp31:
	addq	$16, %rsp
	popq	%rbp
	ret
.Ltmp32:
.Ltmp33:
	.size	_ZN1A5fudgeIZNS_4doitEvEUlvE_EEiT_, .Ltmp33-_ZN1A5fudgeIZNS_4doitEvEUlvE_EEiT_
.Lfunc_end3:
	.cfi_endproc

	.section	.text._ZZN1A4doitEvENKUlvE_clEv,"axG",@progbits,_ZZN1A4doitEvENKUlvE_clEv,comdat
	.weak	_ZZN1A4doitEvENKUlvE_clEv
	.align	16, 0x90
	.type	_ZZN1A4doitEvENKUlvE_clEv,@function
_ZZN1A4doitEvENKUlvE_clEv:              # @_ZZN1A4doitEvENKUlvE_clEv
	.cfi_startproc
.Lfunc_begin4:
	.loc	1 27 0                  # namelessclass.cc:27:0
# BB#0:
	pushq	%rbp
.Ltmp36:
	.cfi_def_cfa_offset 16
.Ltmp37:
	.cfi_offset %rbp, -16
	movq	%rsp, %rbp
.Ltmp38:
	.cfi_def_cfa_register %rbp
	movq	%rdi, -8(%rbp)
	movq	-8(%rbp), %rdi
	movq	(%rdi), %rdi
	.loc	1 28 0 prologue_end     # namelessclass.cc:28:0
.Ltmp39:
	movl	(%rdi), %eax
	popq	%rbp
	ret
.Ltmp40:
.Ltmp41:
	.size	_ZZN1A4doitEvENKUlvE_clEv, .Ltmp41-_ZZN1A4doitEvENKUlvE_clEv
.Lfunc_end4:
	.cfi_endproc

	.section	.text._ZN1AC2Ev,"axG",@progbits,_ZN1AC2Ev,comdat
	.weak	_ZN1AC2Ev
	.align	16, 0x90
	.type	_ZN1AC2Ev,@function
_ZN1AC2Ev:                              # @_ZN1AC2Ev
	.cfi_startproc
.Lfunc_begin5:
	.loc	1 25 0                  # namelessclass.cc:25:0
# BB#0:
	pushq	%rbp
.Ltmp44:
	.cfi_def_cfa_offset 16
.Ltmp45:
	.cfi_offset %rbp, -16
	movq	%rsp, %rbp
.Ltmp46:
	.cfi_def_cfa_register %rbp
	movq	%rdi, -8(%rbp)
	movq	-8(%rbp), %rdi
	.loc	1 25 0 prologue_end     # namelessclass.cc:25:0
.Ltmp47:
	movl	$48879, (%rdi)          # imm = 0xBEEF
	popq	%rbp
	ret
.Ltmp48:
.Ltmp49:
	.size	_ZN1AC2Ev, .Ltmp49-_ZN1AC2Ev
.Lfunc_end5:
	.cfi_endproc

	.text
.Ltext_end:
	.data
.Ldata_end:
	.text
.Lsection_end1:
	.section	".note.GNU-stack","",@progbits
