/* This testcase is part of GDB, the GNU debugger.

   Copyright 2013-2024 Free Software Foundation, Inc.

   Contributed by Intel Corp. <markus.t.metzger@intel.com>

   This program is free software; you can redistribute it and/or modify
   it under the terms of the GNU General Public License as published by
   the Free Software Foundation; either version 3 of the License, or
   (at your option) any later version.

   This program is distributed in the hope that it will be useful,
   but WITHOUT ANY WARRANTY; without even the implied warranty of
   MERCHANTABILITY or FITNESS FOR A PARTICULAR PURPOSE.  See the
   GNU General Public License for more details.

   You should have received a copy of the GNU General Public License
   along with this program.  If not, see <http://www.gnu.org/licenses/>.


   This file has been generated using:
   gcc -S -dA -g record_goto.c -o x86_64-record_goto.S  */

	.file	"record_goto.c"
	.text
.Ltext0:
.globl fun1
	.type	fun1, @function
fun1:
.LFB0:
	.file 1 "record_goto.c"
	# record_goto.c:22
	.loc 1 22 0
	.cfi_startproc
	# basic block 2
	pushq	%rbp
	.cfi_def_cfa_offset 16
	movq	%rsp, %rbp
	.cfi_offset 6, -16
	.cfi_def_cfa_register 6
	# record_goto.c:23
	.loc 1 23 0
	leave
	.cfi_def_cfa 7, 8
	ret
	.cfi_endproc
.LFE0:
	.size	fun1, .-fun1
.globl fun2
	.type	fun2, @function
fun2:
.LFB1:
	# record_goto.c:27
	.loc 1 27 0
	.cfi_startproc
	# basic block 2
	pushq	%rbp
	.cfi_def_cfa_offset 16
	movq	%rsp, %rbp
	.cfi_offset 6, -16
	.cfi_def_cfa_register 6
	# record_goto.c:28
	.loc 1 28 0
	call	fun1
	# record_goto.c:29
	.loc 1 29 0
	leave
	.cfi_def_cfa 7, 8
	ret
	.cfi_endproc
.LFE1:
	.size	fun2, .-fun2
.globl fun3
	.type	fun3, @function
fun3:
.LFB2:
	# record_goto.c:33
	.loc 1 33 0
	.cfi_startproc
	# basic block 2
	pushq	%rbp
	.cfi_def_cfa_offset 16
	movq	%rsp, %rbp
	.cfi_offset 6, -16
	.cfi_def_cfa_register 6
	# record_goto.c:34
	.loc 1 34 0
	call	fun1
	# record_goto.c:35
	.loc 1 35 0
	call	fun2
	# record_goto.c:36
	.loc 1 36 0
	leave
	.cfi_def_cfa 7, 8
	ret
	.cfi_endproc
.LFE2:
	.size	fun3, .-fun3
.globl fun4
	.type	fun4, @function
fun4:
.LFB3:
	# record_goto.c:40
	.loc 1 40 0
	.cfi_startproc
	# basic block 2
	pushq	%rbp
	.cfi_def_cfa_offset 16
	movq	%rsp, %rbp
	.cfi_offset 6, -16
	.cfi_def_cfa_register 6
	# record_goto.c:41
	.loc 1 41 0
	call	fun1
	# record_goto.c:42
	.loc 1 42 0
	call	fun2
	# record_goto.c:43
	.loc 1 43 0
	call	fun3
	# record_goto.c:44
	.loc 1 44 0
	leave
	.cfi_def_cfa 7, 8
	ret
	.cfi_endproc
.LFE3:
	.size	fun4, .-fun4
.globl main
	.type	main, @function
main:
.LFB4:
	# record_goto.c:48
	.loc 1 48 0
	.cfi_startproc
	# basic block 2
	pushq	%rbp
	.cfi_def_cfa_offset 16
	movq	%rsp, %rbp
	.cfi_offset 6, -16
	.cfi_def_cfa_register 6
	# record_goto.c:49
	.loc 1 49 0
	call	fun4
	# record_goto.c:50
	.loc 1 50 0
	movl	$0, %eax
	# record_goto.c:51
	.loc 1 51 0
	leave
	.cfi_def_cfa 7, 8
	ret
	.cfi_endproc
.LFE4:
	.size	main, .-main
.Letext0:
	.section	.note.GNU-stack,"",@progbits
