/* Copyright (C) 2013-2024 Free Software Foundation, Inc.

   This file is part of GDB.

   This program is free software; you can redistribute it and/or modify
   it under the terms of the GNU General Public License as published by
   the Free Software Foundation; either version 3 of the License, or
   (at your option) any later version.

   This program is distributed in the hope that it will be useful,
   but WITHOUT ANY WARRANTY; without even the implied warranty of
   MERCHANTABILITY or FITNESS FOR A PARTICULAR PURPOSE.  See the
   GNU General Public License for more details.

   You should have received a copy of the GNU General Public License
   along with this program.  If not, see <http://www.gnu.org/licenses/>.  */

	.file	"py-linetable.c"
	.text
.Ltext0:
	.globl	foo
	.type	foo, @function
foo:
.LFB0:
	.file 1 "./py-linetable.c"
	.loc 1 20 0
	.cfi_startproc
	pushq	%rbp
	.cfi_def_cfa_offset 16
	.cfi_offset 6, -16
	movq	%rsp, %rbp
	.cfi_def_cfa_register 6
	movl	%edi, -4(%rbp)
	movl	%esi, -8(%rbp)
	.loc 1 21 0
	movl	-4(%rbp), %eax
	cmpl	-8(%rbp), %eax
	jne	.L2
	.loc 1 22 0
	movl	$1, %eax
	jmp	.L3
.L2:
	.loc 1 24 0
	movl	$0, %eax
.L3:
	.loc 1 25 0
	popq	%rbp
	.cfi_def_cfa 7, 8
	ret
	.cfi_endproc
.LFE0:
	.size	foo, .-foo
	.globl	bar
	.type	bar, @function
bar:
.LFB1:
	.loc 1 28 0
	.cfi_startproc
	pushq	%rbp
	.cfi_def_cfa_offset 16
	.cfi_offset 6, -16
	movq	%rsp, %rbp
	.cfi_def_cfa_register 6
	movl	%edi, -4(%rbp)
	movl	%esi, -8(%rbp)
	.loc 1 29 0
	cmpl	$0, -8(%rbp)
	jne	.L5
	.loc 1 30 0
	movl	$1, %eax
	jmp	.L6
.L5:
	.loc 1 32 0
	movl	$0, %eax
.L6:
	.loc 1 33 0
	popq	%rbp
	.cfi_def_cfa 7, 8
	ret
	.cfi_endproc
.LFE1:
	.size	bar, .-bar
	.globl	main
	.type	main, @function
main:
.LFB2:
	.loc 1 37 0
	.cfi_startproc
	pushq	%rbp
	.cfi_def_cfa_offset 16
	.cfi_offset 6, -16
	movq	%rsp, %rbp
	.cfi_def_cfa_register 6
	subq	$16, %rsp
	.loc 1 39 0
	movl	$5, %esi
	movl	$5, %edi
	call	foo
	testl	%eax, %eax
	je	.L8
	.loc 1 39 0 is_stmt 0 discriminator 1
	movl	$0, %esi
	movl	$5, %edi
	call	bar
	testl	%eax, %eax
	je	.L8
	.loc 1 40 0 is_stmt 1
	movl	$0, %eax
	jmp	.L9
.L8:
	.loc 1 42 0
	movl	$0, -4(%rbp)
	jmp	.L10
.L11:
	.loc 1 44 0
	addl	$1, -4(%rbp)
.L10:
	.loc 1 42 0 discriminator 1
	cmpl	$499, -4(%rbp)
	jle	.L11
	.loc 1 45 0
	movl	$0, %eax
.L9:
	.loc 1 46 0
	leave
	.cfi_def_cfa 7, 8
	ret
	.cfi_endproc
.LFE2:
	.size	main, .-main
.Letext0:
	.section	.note.GNU-stack,"",@progbits
